

Microchip MPLAB XC8 Assembler V2.10 build 88905656 
                                                                                               Mon Apr 27 23:02:48 2020

Microchip MPLAB XC8 C Compiler v2.10 (Free license) build 20190730164152 Og1 
     1                           	processor	16F877A
     2                           	opt	pw 120
     3                           	opt	flic
     4                           	psect	strings,global,class=STRING,delta=2
     5                           	psect	cinit,global,class=CODE,merge=1,delta=2
     6                           	psect	bssBANK0,global,class=BANK0,space=1,delta=1
     7                           	psect	cstackCOMMON,global,class=COMMON,space=1,delta=1
     8                           	psect	cstackBANK0,global,class=BANK0,space=1,delta=1
     9                           	psect	maintext,global,class=CODE,split=1,delta=2
    10                           	psect	text1,local,class=CODE,merge=1,delta=2
    11                           	psect	text2,local,class=CODE,merge=1,delta=2
    12                           	psect	text3,local,class=CODE,merge=1,delta=2
    13                           	psect	text4,local,class=CODE,merge=1,delta=2
    14                           	psect	text5,local,class=CODE,merge=1,delta=2
    15                           	psect	text6,local,class=CODE,merge=1,delta=2
    16                           	psect	text7,local,class=CODE,merge=1,delta=2
    17                           	psect	text8,local,class=CODE,merge=1,delta=2
    18                           	psect	text9,local,class=CODE,merge=1,delta=2
    19                           	psect	text10,local,class=CODE,merge=1,delta=2,group=1
    20                           	psect	text11,local,class=CODE,merge=1,delta=2,group=1
    21                           	psect	text12,local,class=CODE,merge=1,delta=2,group=1
    22                           	psect	text13,local,class=CODE,merge=1,delta=2,group=1
    23                           	psect	text14,local,class=CODE,merge=1,delta=2,group=1
    24                           	psect	text15,local,class=CODE,merge=1,delta=2,group=1
    25                           	psect	text16,local,class=CODE,merge=1,delta=2,group=1
    26                           	psect	text17,local,class=CODE,merge=1,delta=2,group=1
    27                           	psect	text18,local,class=CODE,merge=1,delta=2,group=1
    28                           	psect	text19,local,class=CODE,merge=1,delta=2,group=1
    29                           	psect	text20,local,class=CODE,merge=1,delta=2
    30                           	dabs	1,0x7E,2
    31  0000                     
    32                           ; Version 2.10
    33                           ; Generated 31/07/2019 GMT
    34                           ; 
    35                           ; Copyright © 2019, Microchip Technology Inc. and its subsidiaries ("Microchip")
    36                           ; All rights reserved.
    37                           ; 
    38                           ; This software is developed by Microchip Technology Inc. and its subsidiaries ("Microch
      +                          ip").
    39                           ; 
    40                           ; Redistribution and use in source and binary forms, with or without modification, are
    41                           ; permitted provided that the following conditions are met:
    42                           ; 
    43                           ;     1. Redistributions of source code must retain the above copyright notice, this lis
      +                          t of
    44                           ;        conditions and the following disclaimer.
    45                           ; 
    46                           ;     2. Redistributions in binary form must reproduce the above copyright notice, this 
      +                          list
    47                           ;        of conditions and the following disclaimer in the documentation and/or other
    48                           ;        materials provided with the distribution.
    49                           ; 
    50                           ;     3. Microchip's name may not be used to endorse or promote products derived from th
      +                          is
    51                           ;        software without specific prior written permission.
    52                           ; 
    53                           ; THIS SOFTWARE IS PROVIDED BY MICROCHIP "AS IS" AND ANY EXPRESS OR IMPLIED WARRANTIES,
    54                           ; INCLUDING, BUT NOT LIMITED TO, THE IMPLIED WARRANTIES OF MERCHANTABILITY AND FITNESS F
      +                          OR
    55                           ; PURPOSE ARE DISCLAIMED.  IN NO EVENT SHALL MICROCHIP BE LIABLE FOR ANY DIRECT, INDIREC
      +                          T,
    56                           ; INCIDENTAL, SPECIAL, EXEMPLARY, OR CONSEQUENTIAL DAMAGES (INCLUDING BUT NOT LIMITED TO
    57                           ; PROCUREMENT OF SUBSTITUTE GOODS OR SERVICES; LOSS OF USE, DATA OR PROFITS; OR BUSINESS
    58                           ; INTERRUPTION) HOWSOEVER CAUSED AND ON ANY THEORY OF LIABILITY, WHETHER IN CONTRACT, ST
      +                          RICT
    59                           ; LIABILITY, OR TORT (INCLUDING NEGLIGENCE OR OTHERWISE) ARISING IN ANY WAY OUT OF THE U
      +                          SE OF
    60                           ; THIS SOFTWARE, EVEN IF ADVISED OF THE POSSIBILITY OF SUCH DAMAGE.
    61                           ; 
    62                           ; 
    63                           ; Code-generator required, PIC16F877A Definitions
    64                           ; 
    65                           ; SFR Addresses
    66  0000                     	;# 
    67  0001                     	;# 
    68  0002                     	;# 
    69  0003                     	;# 
    70  0004                     	;# 
    71  0005                     	;# 
    72  0006                     	;# 
    73  0007                     	;# 
    74  0008                     	;# 
    75  0009                     	;# 
    76  000A                     	;# 
    77  000B                     	;# 
    78  000C                     	;# 
    79  000D                     	;# 
    80  000E                     	;# 
    81  000E                     	;# 
    82  000F                     	;# 
    83  0010                     	;# 
    84  0011                     	;# 
    85  0012                     	;# 
    86  0013                     	;# 
    87  0014                     	;# 
    88  0015                     	;# 
    89  0015                     	;# 
    90  0016                     	;# 
    91  0017                     	;# 
    92  0018                     	;# 
    93  0019                     	;# 
    94  001A                     	;# 
    95  001B                     	;# 
    96  001B                     	;# 
    97  001C                     	;# 
    98  001D                     	;# 
    99  001E                     	;# 
   100  001F                     	;# 
   101  0081                     	;# 
   102  0085                     	;# 
   103  0086                     	;# 
   104  0087                     	;# 
   105  0088                     	;# 
   106  0089                     	;# 
   107  008C                     	;# 
   108  008D                     	;# 
   109  008E                     	;# 
   110  0091                     	;# 
   111  0092                     	;# 
   112  0093                     	;# 
   113  0094                     	;# 
   114  0098                     	;# 
   115  0099                     	;# 
   116  009C                     	;# 
   117  009D                     	;# 
   118  009E                     	;# 
   119  009F                     	;# 
   120  010C                     	;# 
   121  010D                     	;# 
   122  010E                     	;# 
   123  010F                     	;# 
   124  018C                     	;# 
   125  018D                     	;# 
   126  0000                     	;# 
   127  0001                     	;# 
   128  0002                     	;# 
   129  0003                     	;# 
   130  0004                     	;# 
   131  0005                     	;# 
   132  0006                     	;# 
   133  0007                     	;# 
   134  0008                     	;# 
   135  0009                     	;# 
   136  000A                     	;# 
   137  000B                     	;# 
   138  000C                     	;# 
   139  000D                     	;# 
   140  000E                     	;# 
   141  000E                     	;# 
   142  000F                     	;# 
   143  0010                     	;# 
   144  0011                     	;# 
   145  0012                     	;# 
   146  0013                     	;# 
   147  0014                     	;# 
   148  0015                     	;# 
   149  0015                     	;# 
   150  0016                     	;# 
   151  0017                     	;# 
   152  0018                     	;# 
   153  0019                     	;# 
   154  001A                     	;# 
   155  001B                     	;# 
   156  001B                     	;# 
   157  001C                     	;# 
   158  001D                     	;# 
   159  001E                     	;# 
   160  001F                     	;# 
   161  0081                     	;# 
   162  0085                     	;# 
   163  0086                     	;# 
   164  0087                     	;# 
   165  0088                     	;# 
   166  0089                     	;# 
   167  008C                     	;# 
   168  008D                     	;# 
   169  008E                     	;# 
   170  0091                     	;# 
   171  0092                     	;# 
   172  0093                     	;# 
   173  0094                     	;# 
   174  0098                     	;# 
   175  0099                     	;# 
   176  009C                     	;# 
   177  009D                     	;# 
   178  009E                     	;# 
   179  009F                     	;# 
   180  010C                     	;# 
   181  010D                     	;# 
   182  010E                     	;# 
   183  010F                     	;# 
   184  018C                     	;# 
   185  018D                     	;# 
   186  0000                     	;# 
   187  0001                     	;# 
   188  0002                     	;# 
   189  0003                     	;# 
   190  0004                     	;# 
   191  0005                     	;# 
   192  0006                     	;# 
   193  0007                     	;# 
   194  0008                     	;# 
   195  0009                     	;# 
   196  000A                     	;# 
   197  000B                     	;# 
   198  000C                     	;# 
   199  000D                     	;# 
   200  000E                     	;# 
   201  000E                     	;# 
   202  000F                     	;# 
   203  0010                     	;# 
   204  0011                     	;# 
   205  0012                     	;# 
   206  0013                     	;# 
   207  0014                     	;# 
   208  0015                     	;# 
   209  0015                     	;# 
   210  0016                     	;# 
   211  0017                     	;# 
   212  0018                     	;# 
   213  0019                     	;# 
   214  001A                     	;# 
   215  001B                     	;# 
   216  001B                     	;# 
   217  001C                     	;# 
   218  001D                     	;# 
   219  001E                     	;# 
   220  001F                     	;# 
   221  0081                     	;# 
   222  0085                     	;# 
   223  0086                     	;# 
   224  0087                     	;# 
   225  0088                     	;# 
   226  0089                     	;# 
   227  008C                     	;# 
   228  008D                     	;# 
   229  008E                     	;# 
   230  0091                     	;# 
   231  0092                     	;# 
   232  0093                     	;# 
   233  0094                     	;# 
   234  0098                     	;# 
   235  0099                     	;# 
   236  009C                     	;# 
   237  009D                     	;# 
   238  009E                     	;# 
   239  009F                     	;# 
   240  010C                     	;# 
   241  010D                     	;# 
   242  010E                     	;# 
   243  010F                     	;# 
   244  018C                     	;# 
   245  018D                     	;# 
   246  0000                     	;# 
   247  0001                     	;# 
   248  0002                     	;# 
   249  0003                     	;# 
   250  0004                     	;# 
   251  0005                     	;# 
   252  0006                     	;# 
   253  0007                     	;# 
   254  0008                     	;# 
   255  0009                     	;# 
   256  000A                     	;# 
   257  000B                     	;# 
   258  000C                     	;# 
   259  000D                     	;# 
   260  000E                     	;# 
   261  000E                     	;# 
   262  000F                     	;# 
   263  0010                     	;# 
   264  0011                     	;# 
   265  0012                     	;# 
   266  0013                     	;# 
   267  0014                     	;# 
   268  0015                     	;# 
   269  0015                     	;# 
   270  0016                     	;# 
   271  0017                     	;# 
   272  0018                     	;# 
   273  0019                     	;# 
   274  001A                     	;# 
   275  001B                     	;# 
   276  001B                     	;# 
   277  001C                     	;# 
   278  001D                     	;# 
   279  001E                     	;# 
   280  001F                     	;# 
   281  0081                     	;# 
   282  0085                     	;# 
   283  0086                     	;# 
   284  0087                     	;# 
   285  0088                     	;# 
   286  0089                     	;# 
   287  008C                     	;# 
   288  008D                     	;# 
   289  008E                     	;# 
   290  0091                     	;# 
   291  0092                     	;# 
   292  0093                     	;# 
   293  0094                     	;# 
   294  0098                     	;# 
   295  0099                     	;# 
   296  009C                     	;# 
   297  009D                     	;# 
   298  009E                     	;# 
   299  009F                     	;# 
   300  010C                     	;# 
   301  010D                     	;# 
   302  010E                     	;# 
   303  010F                     	;# 
   304  018C                     	;# 
   305  018D                     	;# 
   306  0000                     	;# 
   307  0001                     	;# 
   308  0002                     	;# 
   309  0003                     	;# 
   310  0004                     	;# 
   311  0005                     	;# 
   312  0006                     	;# 
   313  0007                     	;# 
   314  0008                     	;# 
   315  0009                     	;# 
   316  000A                     	;# 
   317  000B                     	;# 
   318  000C                     	;# 
   319  000D                     	;# 
   320  000E                     	;# 
   321  000E                     	;# 
   322  000F                     	;# 
   323  0010                     	;# 
   324  0011                     	;# 
   325  0012                     	;# 
   326  0013                     	;# 
   327  0014                     	;# 
   328  0015                     	;# 
   329  0015                     	;# 
   330  0016                     	;# 
   331  0017                     	;# 
   332  0018                     	;# 
   333  0019                     	;# 
   334  001A                     	;# 
   335  001B                     	;# 
   336  001B                     	;# 
   337  001C                     	;# 
   338  001D                     	;# 
   339  001E                     	;# 
   340  001F                     	;# 
   341  0081                     	;# 
   342  0085                     	;# 
   343  0086                     	;# 
   344  0087                     	;# 
   345  0088                     	;# 
   346  0089                     	;# 
   347  008C                     	;# 
   348  008D                     	;# 
   349  008E                     	;# 
   350  0091                     	;# 
   351  0092                     	;# 
   352  0093                     	;# 
   353  0094                     	;# 
   354  0098                     	;# 
   355  0099                     	;# 
   356  009C                     	;# 
   357  009D                     	;# 
   358  009E                     	;# 
   359  009F                     	;# 
   360  010C                     	;# 
   361  010D                     	;# 
   362  010E                     	;# 
   363  010F                     	;# 
   364  018C                     	;# 
   365  018D                     	;# 
   366  0000                     	;# 
   367  0001                     	;# 
   368  0002                     	;# 
   369  0003                     	;# 
   370  0004                     	;# 
   371  0005                     	;# 
   372  0006                     	;# 
   373  0007                     	;# 
   374  0008                     	;# 
   375  0009                     	;# 
   376  000A                     	;# 
   377  000B                     	;# 
   378  000C                     	;# 
   379  000D                     	;# 
   380  000E                     	;# 
   381  000E                     	;# 
   382  000F                     	;# 
   383  0010                     	;# 
   384  0011                     	;# 
   385  0012                     	;# 
   386  0013                     	;# 
   387  0014                     	;# 
   388  0015                     	;# 
   389  0015                     	;# 
   390  0016                     	;# 
   391  0017                     	;# 
   392  0018                     	;# 
   393  0019                     	;# 
   394  001A                     	;# 
   395  001B                     	;# 
   396  001B                     	;# 
   397  001C                     	;# 
   398  001D                     	;# 
   399  001E                     	;# 
   400  001F                     	;# 
   401  0081                     	;# 
   402  0085                     	;# 
   403  0086                     	;# 
   404  0087                     	;# 
   405  0088                     	;# 
   406  0089                     	;# 
   407  008C                     	;# 
   408  008D                     	;# 
   409  008E                     	;# 
   410  0091                     	;# 
   411  0092                     	;# 
   412  0093                     	;# 
   413  0094                     	;# 
   414  0098                     	;# 
   415  0099                     	;# 
   416  009C                     	;# 
   417  009D                     	;# 
   418  009E                     	;# 
   419  009F                     	;# 
   420  010C                     	;# 
   421  010D                     	;# 
   422  010E                     	;# 
   423  010F                     	;# 
   424  018C                     	;# 
   425  018D                     	;# 
   426                           
   427                           	psect	strings
   428  0800                     __pstrings:	
   429  0800                     stringtab:	
   430  0800                     __stringtab:	
   431  0800                     stringcode:	
   432                           ;	String table - string pointers are 1 byte each
   433                           
   434  0800                     stringdir:	
   435  0800  3008               	movlw	high stringdir
   436  0801  008A               	movwf	10
   437  0802  0804               	movf	4,w
   438  0803  0A84               	incf	4,f
   439  0804  0782               	addwf	2,f
   440  0805                     __stringbase:	
   441  0805  3400               	retlw	0
   442  0806                     __end_of__stringtab:	
   443  0806                     _rounders:	
   444                           
   445                           ;addtional_string.c: 35: static const double rounders[(10) + 1] =
   446  0806  3400               	retlw	0
   447  0807  3400               	retlw	0
   448  0808  3400               	retlw	0
   449  0809  343F               	retlw	63
   450                           
   451                           ;addtional_string.c: 35: static const double rounders[(10) + 1] =
   452  080A  34CD               	retlw	205
   453  080B  34CC               	retlw	204
   454  080C  344C               	retlw	76
   455  080D  343D               	retlw	61
   456                           
   457                           ;addtional_string.c: 35: static const double rounders[(10) + 1] =
   458  080E  340A               	retlw	10
   459  080F  34D7               	retlw	215
   460  0810  34A3               	retlw	163
   461  0811  343B               	retlw	59
   462                           
   463                           ;addtional_string.c: 35: static const double rounders[(10) + 1] =
   464  0812  346F               	retlw	111
   465  0813  3412               	retlw	18
   466  0814  3403               	retlw	3
   467  0815  343A               	retlw	58
   468                           
   469                           ;addtional_string.c: 35: static const double rounders[(10) + 1] =
   470  0816  3417               	retlw	23
   471  0817  34B7               	retlw	183
   472  0818  3451               	retlw	81
   473  0819  3438               	retlw	56
   474                           
   475                           ;addtional_string.c: 35: static const double rounders[(10) + 1] =
   476  081A  34AC               	retlw	172
   477  081B  34C5               	retlw	197
   478  081C  34A7               	retlw	167
   479  081D  3436               	retlw	54
   480                           
   481                           ;addtional_string.c: 35: static const double rounders[(10) + 1] =
   482  081E  34BD               	retlw	189
   483  081F  3437               	retlw	55
   484  0820  3406               	retlw	6
   485  0821  3435               	retlw	53
   486                           
   487                           ;addtional_string.c: 35: static const double rounders[(10) + 1] =
   488  0822  3495               	retlw	149
   489  0823  34BF               	retlw	191
   490  0824  3456               	retlw	86
   491  0825  3433               	retlw	51
   492                           
   493                           ;addtional_string.c: 35: static const double rounders[(10) + 1] =
   494  0826  3477               	retlw	119
   495  0827  34CC               	retlw	204
   496  0828  34AB               	retlw	171
   497  0829  3431               	retlw	49
   498                           
   499                           ;addtional_string.c: 35: static const double rounders[(10) + 1] =
   500  082A  345F               	retlw	95
   501  082B  3470               	retlw	112
   502  082C  3409               	retlw	9
   503  082D  3430               	retlw	48
   504                           
   505                           ;addtional_string.c: 35: static const double rounders[(10) + 1] =
   506  082E  34FF               	retlw	255
   507  082F  34E6               	retlw	230
   508  0830  345B               	retlw	91
   509  0831  342E               	retlw	46
   510  0832                     __end_of_rounders:	
   511  0005                     _PORTAbits	set	5
   512  0006                     _PORTB	set	6
   513  003C                     _RC4	set	60
   514  003D                     _RC5	set	61
   515  0034                     _RB4	set	52
   516  0031                     _RB1	set	49
   517  0032                     _RB2	set	50
   518  0033                     _RB3	set	51
   519  0088                     _TRISD	set	136
   520  0087                     _TRISC	set	135
   521  0086                     _TRISB	set	134
   522  0085                     _TRISA	set	133
   523  0089                     _TRISE	set	137
   524  009F                     _ADCON1bits	set	159
   525                           
   526                           ; #config settings
   527  0000                     
   528                           	psect	cinit
   529  07F9                     start_initialization:	
   530  07F9                     __initialization:	
   531                           
   532                           ; Clear objects allocated to BANK0
   533  07F9  1283               	bcf	3,5	;RP0=0, select bank0
   534  07FA  1303               	bcf	3,6	;RP1=0, select bank0
   535  07FB  01D7               	clrf	__pbssBANK0& (0+127)
   536  07FC                     end_of_initialization:	
   537                           ;End of C runtime variable initialization code
   538                           
   539  07FC                     __end_of__initialization:	
   540  07FC  0183               	clrf	3
   541  07FD  120A  158A  2A8B   	ljmp	_main	;jump to C main() function
   542                           
   543                           	psect	bssBANK0
   544  0057                     __pbssBANK0:	
   545  0057                     _lcd_bits:	
   546  0057                     	ds	1
   547                           
   548                           	psect	cstackCOMMON
   549  0070                     __pcstackCOMMON:	
   550  0070                     ?___flge:	
   551  0070                     ?_PIN_MANAGER_Initialize:	
   552                           ; 1 bit 
   553                           
   554  0070                     ??_PIN_MANAGER_Initialize:	
   555                           ; 1 bytes @ 0x0
   556                           
   557  0070                     ?_System_Test:	
   558                           ; 1 bytes @ 0x0
   559                           
   560  0070                     ?_lcd_write:	
   561                           ; 1 bytes @ 0x0
   562                           
   563  0070                     ??_lcd_write:	
   564                           ; 1 bytes @ 0x0
   565                           
   566  0070                     ?_lcd_clear:	
   567                           ; 1 bytes @ 0x0
   568                           
   569  0070                     ?_lcd_puts:	
   570                           ; 1 bytes @ 0x0
   571                           
   572  0070                     ?_lcd_goto:	
   573                           ; 1 bytes @ 0x0
   574                           
   575  0070                     ?_lcd_init:	
   576                           ; 1 bytes @ 0x0
   577                           
   578  0070                     ?_lcd_start:	
   579                           ; 1 bytes @ 0x0
   580                           
   581  0070                     ?_main:	
   582                           ; 1 bytes @ 0x0
   583                           
   584  0070                     ?__Umul8_16:	
   585                           ; 1 bytes @ 0x0
   586                           
   587  0070                     ?___aldiv:	
   588                           ; 2 bytes @ 0x0
   589                           
   590  0070                     ?___almod:	
   591                           ; 4 bytes @ 0x0
   592                           
   593  0070                     ?___flneg:	
   594                           ; 4 bytes @ 0x0
   595                           
   596  0070                     ?___fltol:	
   597                           ; 4 bytes @ 0x0
   598                           
   599  0070                     ?___fladd:	
   600                           ; 4 bytes @ 0x0
   601                           
   602  0070                     ?___xxtofl:	
   603                           ; 4 bytes @ 0x0
   604                           
   605  0070                     __Umul8_16@multiplicand:	
   606                           ; 4 bytes @ 0x0
   607                           
   608  0070                     ___aldiv@divisor:	
   609                           ; 1 bytes @ 0x0
   610                           
   611  0070                     ___almod@divisor:	
   612                           ; 4 bytes @ 0x0
   613                           
   614  0070                     ___flge@ff1:	
   615                           ; 4 bytes @ 0x0
   616                           
   617  0070                     ___flneg@f1:	
   618                           ; 4 bytes @ 0x0
   619                           
   620  0070                     ___fltol@f1:	
   621                           ; 4 bytes @ 0x0
   622                           
   623  0070                     ___fladd@b:	
   624                           ; 4 bytes @ 0x0
   625                           
   626  0070                     ___xxtofl@val:	
   627                           ; 4 bytes @ 0x0
   628                           
   629                           
   630                           ; 4 bytes @ 0x0
   631  0070                     	ds	1
   632  0071                     lcd_write@c:	
   633                           
   634                           ; 1 bytes @ 0x1
   635  0071                     	ds	1
   636  0072                     ??__Umul8_16:	
   637  0072                     ??_lcd_clear:	
   638                           ; 1 bytes @ 0x2
   639                           
   640  0072                     ??_lcd_puts:	
   641                           ; 1 bytes @ 0x2
   642                           
   643  0072                     ??_lcd_goto:	
   644                           ; 1 bytes @ 0x2
   645                           
   646  0072                     lcd_goto@pos:	
   647                           ; 1 bytes @ 0x2
   648                           
   649                           
   650                           ; 1 bytes @ 0x2
   651  0072                     	ds	1
   652  0073                     lcd_puts@s:	
   653                           
   654                           ; 1 bytes @ 0x3
   655  0073                     	ds	1
   656  0074                     ??_lcd_init:	
   657  0074                     ??___flneg:	
   658                           ; 1 bytes @ 0x4
   659                           
   660  0074                     ??___fltol:	
   661                           ; 1 bytes @ 0x4
   662                           
   663  0074                     ??___xxtofl:	
   664                           ; 1 bytes @ 0x4
   665                           
   666  0074                     __Umul8_16@product:	
   667                           ; 1 bytes @ 0x4
   668                           
   669  0074                     ___aldiv@dividend:	
   670                           ; 2 bytes @ 0x4
   671                           
   672  0074                     ___almod@dividend:	
   673                           ; 4 bytes @ 0x4
   674                           
   675  0074                     ___flge@ff2:	
   676                           ; 4 bytes @ 0x4
   677                           
   678  0074                     ___fladd@a:	
   679                           ; 4 bytes @ 0x4
   680                           
   681                           
   682                           ; 4 bytes @ 0x4
   683  0074                     	ds	2
   684  0076                     __Umul8_16@word_mpld:	
   685                           
   686                           ; 2 bytes @ 0x6
   687  0076                     	ds	1
   688  0077                     ??_lcd_start:	
   689                           
   690                           ; 1 bytes @ 0x7
   691  0077                     	ds	1
   692  0078                     ??___aldiv:	
   693  0078                     ??___almod:	
   694                           ; 1 bytes @ 0x8
   695                           
   696  0078                     ??___flge:	
   697                           ; 1 bytes @ 0x8
   698                           
   699  0078                     ___fladd@signs:	
   700                           ; 1 bytes @ 0x8
   701                           
   702  0078                     ___xxtofl@sign:	
   703                           ; 1 bytes @ 0x8
   704                           
   705  0078                     __Umul8_16@multiplier:	
   706                           ; 1 bytes @ 0x8
   707                           
   708                           
   709                           ; 1 bytes @ 0x8
   710  0078                     	ds	1
   711  0079                     ??___flmul:	
   712  0079                     ___almod@counter:	
   713                           ; 1 bytes @ 0x9
   714                           
   715  0079                     ___fltol@sign1:	
   716                           ; 1 bytes @ 0x9
   717                           
   718  0079                     ___fladd@aexp:	
   719                           ; 1 bytes @ 0x9
   720                           
   721  0079                     ___xxtofl@exp:	
   722                           ; 1 bytes @ 0x9
   723                           
   724                           
   725                           ; 1 bytes @ 0x9
   726  0079                     	ds	1
   727  007A                     ___almod@sign:	
   728  007A                     ___fltol@exp1:	
   729                           ; 1 bytes @ 0xA
   730                           
   731  007A                     ___fladd@bexp:	
   732                           ; 1 bytes @ 0xA
   733                           
   734  007A                     ___xxtofl@arg:	
   735                           ; 1 bytes @ 0xA
   736                           
   737                           
   738                           ; 4 bytes @ 0xA
   739  007A                     	ds	1
   740  007B                     ___fladd@grs:	
   741                           
   742                           ; 1 bytes @ 0xB
   743  007B                     	ds	3
   744  007E                     ??_main:	
   745  007E                     ??___flsub:	
   746                           ; 1 bytes @ 0xE
   747                           
   748                           
   749                           	psect	cstackBANK0
   750  0020                     __pcstackBANK0:	
   751                           ; 1 bytes @ 0xE
   752                           
   753  0020                     ??___fladd:	
   754  0020                     ?___flmul:	
   755                           ; 1 bytes @ 0x0
   756                           
   757  0020                     ___aldiv@counter:	
   758                           ; 4 bytes @ 0x0
   759                           
   760  0020                     ___flmul@b:	
   761                           ; 1 bytes @ 0x0
   762                           
   763                           
   764                           ; 4 bytes @ 0x0
   765  0020                     	ds	1
   766  0021                     ___aldiv@sign:	
   767                           
   768                           ; 1 bytes @ 0x1
   769  0021                     	ds	1
   770  0022                     ___aldiv@quotient:	
   771                           
   772                           ; 4 bytes @ 0x2
   773  0022                     	ds	2
   774  0024                     ___flmul@a:	
   775                           
   776                           ; 4 bytes @ 0x4
   777  0024                     	ds	4
   778  0028                     ?___flsub:	
   779  0028                     ___flmul@sign:	
   780                           ; 4 bytes @ 0x8
   781                           
   782  0028                     ___flsub@a:	
   783                           ; 1 bytes @ 0x8
   784                           
   785                           
   786                           ; 4 bytes @ 0x8
   787  0028                     	ds	1
   788  0029                     ___flmul@grs:	
   789                           
   790                           ; 4 bytes @ 0x9
   791  0029                     	ds	3
   792  002C                     ___flsub@b:	
   793                           
   794                           ; 4 bytes @ 0xC
   795  002C                     	ds	1
   796  002D                     ___flmul@aexp:	
   797                           
   798                           ; 1 bytes @ 0xD
   799  002D                     	ds	1
   800  002E                     ___flmul@bexp:	
   801                           
   802                           ; 1 bytes @ 0xE
   803  002E                     	ds	1
   804  002F                     ___flmul@prod:	
   805                           
   806                           ; 4 bytes @ 0xF
   807  002F                     	ds	4
   808  0033                     ___flmul@temp:	
   809                           
   810                           ; 2 bytes @ 0x13
   811  0033                     	ds	2
   812  0035                     ?_ftoa:	
   813  0035                     ftoa@f:	
   814                           ; 1 bytes @ 0x15
   815                           
   816                           
   817                           ; 4 bytes @ 0x15
   818  0035                     	ds	4
   819  0039                     ftoa@buf:	
   820                           
   821                           ; 1 bytes @ 0x19
   822  0039                     	ds	1
   823  003A                     ftoa@precision:	
   824                           
   825                           ; 2 bytes @ 0x1A
   826  003A                     	ds	2
   827  003C                     ??_ftoa:	
   828                           
   829                           ; 1 bytes @ 0x1C
   830  003C                     	ds	5
   831  0041                     ftoa@p1:	
   832                           
   833                           ; 1 bytes @ 0x21
   834  0041                     	ds	1
   835  0042                     ftoa@c:	
   836                           
   837                           ; 1 bytes @ 0x22
   838  0042                     	ds	1
   839  0043                     ftoa@intPart:	
   840                           
   841                           ; 4 bytes @ 0x23
   842  0043                     	ds	4
   843  0047                     ftoa@p:	
   844                           
   845                           ; 1 bytes @ 0x27
   846  0047                     	ds	1
   847  0048                     ftoa@ptr:	
   848                           
   849                           ; 1 bytes @ 0x28
   850  0048                     	ds	1
   851  0049                     ?_lcd_put_float:	
   852  0049                     lcd_put_float@val:	
   853                           ; 1 bytes @ 0x29
   854                           
   855                           
   856                           ; 4 bytes @ 0x29
   857  0049                     	ds	4
   858  004D                     lcd_put_float@lcd_position:	
   859                           
   860                           ; 1 bytes @ 0x2D
   861  004D                     	ds	1
   862  004E                     ??_lcd_put_float:	
   863                           
   864                           ; 1 bytes @ 0x2E
   865  004E                     	ds	1
   866  004F                     lcd_put_float@lcd_float_ans:	
   867                           
   868                           ; 5 bytes @ 0x2F
   869  004F                     	ds	5
   870  0054                     ??_System_Test:	
   871                           
   872                           ; 1 bytes @ 0x34
   873  0054                     	ds	3
   874                           
   875                           	psect	maintext
   876  0A8B                     __pmaintext:	
   877 ;;
   878 ;;Main: autosize = 0, tempsize = 0, incstack = 0, save=0
   879 ;;
   880 ;; *************** function _main *****************
   881 ;; Defined at:
   882 ;;		line 3 in file "main.c"
   883 ;; Parameters:    Size  Location     Type
   884 ;;		None
   885 ;; Auto vars:     Size  Location     Type
   886 ;;		None
   887 ;; Return value:  Size  Location     Type
   888 ;;                  1    wreg      void 
   889 ;; Registers used:
   890 ;;		wreg, fsr0l, fsr0h, status,2, status,0, btemp+1, pclath, cstack
   891 ;; Tracked objects:
   892 ;;		On entry : B00/0
   893 ;;		On exit  : 0/0
   894 ;;		Unchanged: 0/0
   895 ;; Data sizes:     COMMON   BANK0   BANK1   BANK3   BANK2
   896 ;;      Params:         0       0       0       0       0
   897 ;;      Locals:         0       0       0       0       0
   898 ;;      Temps:          0       0       0       0       0
   899 ;;      Totals:         0       0       0       0       0
   900 ;;Total ram usage:        0 bytes
   901 ;; Hardware stack levels required when called:    5
   902 ;; This function calls:
   903 ;;		_PIN_MANAGER_Initialize
   904 ;;		_System_Test
   905 ;;		_lcd_start
   906 ;; This function is called by:
   907 ;;		Startup code after reset
   908 ;; This function uses a non-reentrant model
   909 ;;
   910                           
   911                           
   912                           ;psect for function _main
   913  0A8B                     _main:	
   914  0A8B                     l2250:	
   915                           ;incstack = 0
   916                           ; Regs used in _main: [wreg-fsr0h+status,2+status,0+btemp+1+pclath+cstack]
   917                           
   918                           
   919                           ;main.c: 6:     PIN_MANAGER_Initialize();
   920  0A8B  120A  158A  2269  120A  158A  	fcall	_PIN_MANAGER_Initialize
   921                           
   922                           ;main.c: 7:     lcd_start();
   923  0A90  120A  158A  2252  120A  158A  	fcall	_lcd_start
   924  0A95                     l2252:	
   925                           
   926                           ;main.c: 9:         System_Test();
   927  0A95  120A  158A  2328  120A  158A  	fcall	_System_Test
   928  0A9A  2A95               	goto	l2252
   929  0A9B  120A  118A  2800   	ljmp	start
   930  0A9E                     __end_of_main:	
   931                           
   932                           	psect	text1
   933  0A52                     __ptext1:	
   934 ;; *************** function _lcd_start *****************
   935 ;; Defined at:
   936 ;;		line 147 in file "lcd.c"
   937 ;; Parameters:    Size  Location     Type
   938 ;;		None
   939 ;; Auto vars:     Size  Location     Type
   940 ;;		None
   941 ;; Return value:  Size  Location     Type
   942 ;;                  1    wreg      void 
   943 ;; Registers used:
   944 ;;		wreg, status,2, status,0, pclath, cstack
   945 ;; Tracked objects:
   946 ;;		On entry : 0/0
   947 ;;		On exit  : 0/0
   948 ;;		Unchanged: 0/0
   949 ;; Data sizes:     COMMON   BANK0   BANK1   BANK3   BANK2
   950 ;;      Params:         0       0       0       0       0
   951 ;;      Locals:         0       0       0       0       0
   952 ;;      Temps:          0       0       0       0       0
   953 ;;      Totals:         0       0       0       0       0
   954 ;;Total ram usage:        0 bytes
   955 ;; Hardware stack levels used:    1
   956 ;; Hardware stack levels required when called:    3
   957 ;; This function calls:
   958 ;;		_lcd_clear
   959 ;;		_lcd_init
   960 ;; This function is called by:
   961 ;;		_main
   962 ;; This function uses a non-reentrant model
   963 ;;
   964                           
   965                           
   966                           ;psect for function _lcd_start
   967  0A52                     _lcd_start:	
   968  0A52                     l2234:	
   969                           ;incstack = 0
   970                           ; Regs used in _lcd_start: [wreg+status,2+status,0+pclath+cstack]
   971                           
   972                           
   973                           ;lcd.c: 149:     lcd_init();
   974  0A52  120A  118A  200C  120A  158A  	fcall	_lcd_init
   975                           
   976                           ;lcd.c: 150:     lcd_clear();
   977  0A57  120A  158A  2278  120A  158A  	fcall	_lcd_clear
   978  0A5C                     l44:	
   979  0A5C  0008               	return
   980  0A5D                     __end_of_lcd_start:	
   981                           
   982                           	psect	text2
   983  000C                     __ptext2:	
   984 ;; *************** function _lcd_init *****************
   985 ;; Defined at:
   986 ;;		line 119 in file "lcd.c"
   987 ;; Parameters:    Size  Location     Type
   988 ;;		None
   989 ;; Auto vars:     Size  Location     Type
   990 ;;  init_value      1    0        unsigned char 
   991 ;; Return value:  Size  Location     Type
   992 ;;                  1    wreg      void 
   993 ;; Registers used:
   994 ;;		wreg, status,2, status,0, pclath, cstack
   995 ;; Tracked objects:
   996 ;;		On entry : 0/0
   997 ;;		On exit  : 0/0
   998 ;;		Unchanged: 0/0
   999 ;; Data sizes:     COMMON   BANK0   BANK1   BANK3   BANK2
  1000 ;;      Params:         0       0       0       0       0
  1001 ;;      Locals:         1       0       0       0       0
  1002 ;;      Temps:          2       0       0       0       0
  1003 ;;      Totals:         3       0       0       0       0
  1004 ;;Total ram usage:        3 bytes
  1005 ;; Hardware stack levels used:    1
  1006 ;; Hardware stack levels required when called:    2
  1007 ;; This function calls:
  1008 ;;		_lcd_clear
  1009 ;;		_lcd_write
  1010 ;; This function is called by:
  1011 ;;		_lcd_start
  1012 ;; This function uses a non-reentrant model
  1013 ;;
  1014                           
  1015                           
  1016                           ;psect for function _lcd_init
  1017  000C                     _lcd_init:	
  1018  000C                     l2200:	
  1019                           ;incstack = 0
  1020                           ; Regs used in _lcd_init: [wreg+status,2+status,0+pclath+cstack]
  1021                           
  1022  000C                     l2202:	
  1023                           
  1024                           ;lcd.c: 124:  RC4 = 0;
  1025  000C  1283               	bcf	3,5	;RP0=0, select bank0
  1026  000D  1303               	bcf	3,6	;RP1=0, select bank0
  1027  000E  1207               	bcf	7,4	;volatile
  1028  000F                     l2204:	
  1029                           
  1030                           ;lcd.c: 125:  RC5 = 0;
  1031  000F  1287               	bcf	7,5	;volatile
  1032                           
  1033                           ;lcd.c: 128:  _delay((unsigned long)((15)*(20000000/4000.0)));
  1034  0010  3062               	movlw	98
  1035  0011  00F5               	movwf	??_lcd_init+1
  1036  0012  3065               	movlw	101
  1037  0013  00F4               	movwf	??_lcd_init
  1038  0014                     u3417:	
  1039  0014  0BF4               	decfsz	??_lcd_init,f
  1040  0015  2814               	goto	u3417
  1041  0016  0BF5               	decfsz	??_lcd_init+1,f
  1042  0017  2814               	goto	u3417
  1043  0018  2819               	nop2
  1044                           
  1045                           ;lcd.c: 129:  PORTB = init_value;
  1046  0019  3003               	movlw	3
  1047  001A  1283               	bcf	3,5	;RP0=0, select bank0
  1048  001B  1303               	bcf	3,6	;RP1=0, select bank0
  1049  001C  0086               	movwf	6	;volatile
  1050  001D                     l2206:	
  1051                           
  1052                           ;lcd.c: 130:  ((RC5 = 1),(RC5=0));
  1053  001D  1687               	bsf	7,5	;volatile
  1054  001E                     l2208:	
  1055  001E  1287               	bcf	7,5	;volatile
  1056                           
  1057                           ;lcd.c: 131:  _delay((unsigned long)((5)*(20000000/4000.0)));
  1058  001F  3021               	movlw	33
  1059  0020  00F5               	movwf	??_lcd_init+1
  1060  0021  3076               	movlw	118
  1061  0022  00F4               	movwf	??_lcd_init
  1062  0023                     u3427:	
  1063  0023  0BF4               	decfsz	??_lcd_init,f
  1064  0024  2823               	goto	u3427
  1065  0025  0BF5               	decfsz	??_lcd_init+1,f
  1066  0026  2823               	goto	u3427
  1067  0027  0000               	nop
  1068  0028                     l2210:	
  1069                           
  1070                           ;lcd.c: 132:  ((RC5 = 1),(RC5=0));
  1071  0028  1283               	bcf	3,5	;RP0=0, select bank0
  1072  0029  1303               	bcf	3,6	;RP1=0, select bank0
  1073  002A  1687               	bsf	7,5	;volatile
  1074  002B                     l2212:	
  1075  002B  1287               	bcf	7,5	;volatile
  1076                           
  1077                           ;lcd.c: 133:  _delay((unsigned long)((200)*(20000000/4000000.0)));
  1078  002C  30C7               	movlw	199
  1079  002D  00F4               	movwf	??_lcd_init
  1080  002E                     u3437:	
  1081  002E  282F               	nop2
  1082  002F  0BF4               	decfsz	??_lcd_init,f
  1083  0030  282E               	goto	u3437
  1084  0031  2832               	nop2
  1085  0032  2833               	nop2
  1086  0033                     l2214:	
  1087                           
  1088                           ;lcd.c: 134:  ((RC5 = 1),(RC5=0));
  1089  0033  1283               	bcf	3,5	;RP0=0, select bank0
  1090  0034  1303               	bcf	3,6	;RP1=0, select bank0
  1091  0035  1687               	bsf	7,5	;volatile
  1092  0036                     l2216:	
  1093  0036  1287               	bcf	7,5	;volatile
  1094                           
  1095                           ;lcd.c: 135:  _delay((unsigned long)((200)*(20000000/4000000.0)));
  1096  0037  30C7               	movlw	199
  1097  0038  00F4               	movwf	??_lcd_init
  1098  0039                     u3447:	
  1099  0039  283A               	nop2
  1100  003A  0BF4               	decfsz	??_lcd_init,f
  1101  003B  2839               	goto	u3447
  1102  003C  283D               	nop2
  1103  003D  283E               	nop2
  1104                           
  1105                           ;lcd.c: 136:  PORTB = 2;
  1106  003E  3002               	movlw	2
  1107  003F  1283               	bcf	3,5	;RP0=0, select bank0
  1108  0040  1303               	bcf	3,6	;RP1=0, select bank0
  1109  0041  0086               	movwf	6	;volatile
  1110  0042                     l2218:	
  1111                           
  1112                           ;lcd.c: 137:  ((RC5 = 1),(RC5=0));
  1113  0042  1687               	bsf	7,5	;volatile
  1114  0043                     l2220:	
  1115  0043  1287               	bcf	7,5	;volatile
  1116  0044                     l2222:	
  1117                           
  1118                           ;lcd.c: 139:  lcd_write(0x28);
  1119  0044  3028               	movlw	40
  1120  0045  120A  158A  2369  120A  118A  	fcall	_lcd_write
  1121  004A                     l2224:	
  1122                           
  1123                           ;lcd.c: 140:     lcd_write(0x0E);
  1124  004A  300E               	movlw	14
  1125  004B  120A  158A  2369  120A  118A  	fcall	_lcd_write
  1126  0050                     l2226:	
  1127                           
  1128                           ;lcd.c: 143:  lcd_clear();
  1129  0050  120A  158A  2278  120A  118A  	fcall	_lcd_clear
  1130  0055                     l2228:	
  1131                           
  1132                           ;lcd.c: 144:  lcd_write(0x6);
  1133  0055  3006               	movlw	6
  1134  0056  120A  158A  2369  120A  118A  	fcall	_lcd_write
  1135  005B                     l41:	
  1136  005B  0008               	return
  1137  005C                     __end_of_lcd_init:	
  1138                           
  1139                           	psect	text3
  1140  0A78                     __ptext3:	
  1141 ;; *************** function _lcd_clear *****************
  1142 ;; Defined at:
  1143 ;;		line 79 in file "lcd.c"
  1144 ;; Parameters:    Size  Location     Type
  1145 ;;		None
  1146 ;; Auto vars:     Size  Location     Type
  1147 ;;		None
  1148 ;; Return value:  Size  Location     Type
  1149 ;;                  1    wreg      void 
  1150 ;; Registers used:
  1151 ;;		wreg, status,2, status,0, pclath, cstack
  1152 ;; Tracked objects:
  1153 ;;		On entry : 0/0
  1154 ;;		On exit  : 0/0
  1155 ;;		Unchanged: 0/0
  1156 ;; Data sizes:     COMMON   BANK0   BANK1   BANK3   BANK2
  1157 ;;      Params:         0       0       0       0       0
  1158 ;;      Locals:         0       0       0       0       0
  1159 ;;      Temps:          2       0       0       0       0
  1160 ;;      Totals:         2       0       0       0       0
  1161 ;;Total ram usage:        2 bytes
  1162 ;; Hardware stack levels used:    1
  1163 ;; Hardware stack levels required when called:    1
  1164 ;; This function calls:
  1165 ;;		_lcd_write
  1166 ;; This function is called by:
  1167 ;;		_lcd_init
  1168 ;;		_lcd_start
  1169 ;; This function uses a non-reentrant model
  1170 ;;
  1171                           
  1172                           
  1173                           ;psect for function _lcd_clear
  1174  0A78                     _lcd_clear:	
  1175  0A78                     l2078:	
  1176                           ;incstack = 0
  1177                           ; Regs used in _lcd_clear: [wreg+status,2+status,0+pclath+cstack]
  1178                           
  1179                           
  1180                           ;lcd.c: 81:  RC4 = 0;
  1181  0A78  1283               	bcf	3,5	;RP0=0, select bank0
  1182  0A79  1303               	bcf	3,6	;RP1=0, select bank0
  1183  0A7A  1207               	bcf	7,4	;volatile
  1184  0A7B                     l2080:	
  1185                           
  1186                           ;lcd.c: 82:  lcd_write(0x1);
  1187  0A7B  3001               	movlw	1
  1188  0A7C  120A  158A  2369  120A  158A  	fcall	_lcd_write
  1189  0A81                     l2082:	
  1190                           
  1191                           ;lcd.c: 83:  _delay((unsigned long)((2)*(20000000/4000.0)));
  1192  0A81  300D               	movlw	13
  1193  0A82  00F3               	movwf	??_lcd_clear+1
  1194  0A83  30FB               	movlw	251
  1195  0A84  00F2               	movwf	??_lcd_clear
  1196  0A85                     u3457:	
  1197  0A85  0BF2               	decfsz	??_lcd_clear,f
  1198  0A86  2A85               	goto	u3457
  1199  0A87  0BF3               	decfsz	??_lcd_clear+1,f
  1200  0A88  2A85               	goto	u3457
  1201  0A89  2A8A               	nop2
  1202  0A8A                     l26:	
  1203  0A8A  0008               	return
  1204  0A8B                     __end_of_lcd_clear:	
  1205                           
  1206                           	psect	text4
  1207  0B28                     __ptext4:	
  1208 ;; *************** function _System_Test *****************
  1209 ;; Defined at:
  1210 ;;		line 10 in file "system_configuration.c"
  1211 ;; Parameters:    Size  Location     Type
  1212 ;;		None
  1213 ;; Auto vars:     Size  Location     Type
  1214 ;;		None
  1215 ;; Return value:  Size  Location     Type
  1216 ;;                  1    wreg      void 
  1217 ;; Registers used:
  1218 ;;		wreg, fsr0l, fsr0h, status,2, status,0, btemp+1, pclath, cstack
  1219 ;; Tracked objects:
  1220 ;;		On entry : 0/0
  1221 ;;		On exit  : 0/0
  1222 ;;		Unchanged: 0/0
  1223 ;; Data sizes:     COMMON   BANK0   BANK1   BANK3   BANK2
  1224 ;;      Params:         0       0       0       0       0
  1225 ;;      Locals:         0       0       0       0       0
  1226 ;;      Temps:          0       3       0       0       0
  1227 ;;      Totals:         0       3       0       0       0
  1228 ;;Total ram usage:        3 bytes
  1229 ;; Hardware stack levels used:    1
  1230 ;; Hardware stack levels required when called:    4
  1231 ;; This function calls:
  1232 ;;		_lcd_put_float
  1233 ;; This function is called by:
  1234 ;;		_main
  1235 ;; This function uses a non-reentrant model
  1236 ;;
  1237                           
  1238                           
  1239                           ;psect for function _System_Test
  1240  0B28                     _System_Test:	
  1241  0B28                     l2236:	
  1242                           ;incstack = 0
  1243                           ; Regs used in _System_Test: [wreg-fsr0h+status,2+status,0+btemp+1+pclath+cstack]
  1244                           
  1245                           
  1246                           ;system_configuration.c: 12:          _delay((unsigned long)((500)*(20000000/4000.0)));
  1247  0B28  300D               	movlw	13
  1248  0B29  1283               	bcf	3,5	;RP0=0, select bank0
  1249  0B2A  1303               	bcf	3,6	;RP1=0, select bank0
  1250  0B2B  00D6               	movwf	??_System_Test+2
  1251  0B2C  30AF               	movlw	175
  1252  0B2D  00D5               	movwf	??_System_Test+1
  1253  0B2E  30B5               	movlw	181
  1254  0B2F  00D4               	movwf	??_System_Test
  1255  0B30                     u3467:	
  1256  0B30  0BD4               	decfsz	??_System_Test,f
  1257  0B31  2B30               	goto	u3467
  1258  0B32  0BD5               	decfsz	??_System_Test+1,f
  1259  0B33  2B30               	goto	u3467
  1260  0B34  0BD6               	decfsz	??_System_Test+2,f
  1261  0B35  2B30               	goto	u3467
  1262  0B36  2B37               	nop2
  1263  0B37                     l2238:	
  1264  0B37  1283               	bcf	3,5	;RP0=0, select bank0
  1265  0B38  1303               	bcf	3,6	;RP1=0, select bank0
  1266  0B39  1505               	bsf	5,2	;volatile
  1267  0B3A                     l2240:	
  1268                           
  1269                           ;system_configuration.c: 14:       lcd_put_float(5.25,(0x0));
  1270  0B3A  3040               	movlw	64
  1271  0B3B  00CC               	movwf	lcd_put_float@val+3
  1272  0B3C  30A8               	movlw	168
  1273  0B3D  00CB               	movwf	lcd_put_float@val+2
  1274  0B3E  3000               	movlw	0
  1275  0B3F  00CA               	movwf	lcd_put_float@val+1
  1276  0B40  3000               	movlw	0
  1277  0B41  00C9               	movwf	lcd_put_float@val
  1278  0B42  01CD               	clrf	lcd_put_float@lcd_position
  1279  0B43  120A  158A  22DC  120A  158A  	fcall	_lcd_put_float
  1280  0B48                     l2242:	
  1281                           
  1282                           ;system_configuration.c: 15:      _delay((unsigned long)((500)*(20000000/4000.0)));
  1283  0B48  300D               	movlw	13
  1284  0B49  1283               	bcf	3,5	;RP0=0, select bank0
  1285  0B4A  1303               	bcf	3,6	;RP1=0, select bank0
  1286  0B4B  00D6               	movwf	??_System_Test+2
  1287  0B4C  30AF               	movlw	175
  1288  0B4D  00D5               	movwf	??_System_Test+1
  1289  0B4E  30B5               	movlw	181
  1290  0B4F  00D4               	movwf	??_System_Test
  1291  0B50                     u3477:	
  1292  0B50  0BD4               	decfsz	??_System_Test,f
  1293  0B51  2B50               	goto	u3477
  1294  0B52  0BD5               	decfsz	??_System_Test+1,f
  1295  0B53  2B50               	goto	u3477
  1296  0B54  0BD6               	decfsz	??_System_Test+2,f
  1297  0B55  2B50               	goto	u3477
  1298  0B56  2B57               	nop2
  1299  0B57                     l2244:	
  1300  0B57  1283               	bcf	3,5	;RP0=0, select bank0
  1301  0B58  1303               	bcf	3,6	;RP1=0, select bank0
  1302  0B59  1105               	bcf	5,2	;volatile
  1303  0B5A                     l88:	
  1304                           
  1305                           ;system_configuration.c: 17:      lcd_put_float(4.75,(0x0));
  1306  0B5A  3040               	movlw	64
  1307  0B5B  00CC               	movwf	lcd_put_float@val+3
  1308  0B5C  3098               	movlw	152
  1309  0B5D  00CB               	movwf	lcd_put_float@val+2
  1310  0B5E  3000               	movlw	0
  1311  0B5F  00CA               	movwf	lcd_put_float@val+1
  1312  0B60  3000               	movlw	0
  1313  0B61  00C9               	movwf	lcd_put_float@val
  1314  0B62  01CD               	clrf	lcd_put_float@lcd_position
  1315  0B63  120A  158A  22DC  120A  158A  	fcall	_lcd_put_float
  1316  0B68                     l89:	
  1317  0B68  0008               	return
  1318  0B69                     __end_of_System_Test:	
  1319                           
  1320                           	psect	text5
  1321  0ADC                     __ptext5:	
  1322 ;; *************** function _lcd_put_float *****************
  1323 ;; Defined at:
  1324 ;;		line 153 in file "lcd.c"
  1325 ;; Parameters:    Size  Location     Type
  1326 ;;  val             4   41[BANK0 ] float 
  1327 ;;  lcd_position    1   45[BANK0 ] unsigned char 
  1328 ;; Auto vars:     Size  Location     Type
  1329 ;;  lcd_float_an    5   47[BANK0 ] unsigned char [5]
  1330 ;; Return value:  Size  Location     Type
  1331 ;;                  1    wreg      void 
  1332 ;; Registers used:
  1333 ;;		wreg, fsr0l, fsr0h, status,2, status,0, btemp+1, pclath, cstack
  1334 ;; Tracked objects:
  1335 ;;		On entry : 0/0
  1336 ;;		On exit  : 0/0
  1337 ;;		Unchanged: 0/0
  1338 ;; Data sizes:     COMMON   BANK0   BANK1   BANK3   BANK2
  1339 ;;      Params:         0       5       0       0       0
  1340 ;;      Locals:         0       5       0       0       0
  1341 ;;      Temps:          0       1       0       0       0
  1342 ;;      Totals:         0      11       0       0       0
  1343 ;;Total ram usage:       11 bytes
  1344 ;; Hardware stack levels used:    1
  1345 ;; Hardware stack levels required when called:    3
  1346 ;; This function calls:
  1347 ;;		_ftoa
  1348 ;;		_lcd_goto
  1349 ;;		_lcd_puts
  1350 ;; This function is called by:
  1351 ;;		_System_Test
  1352 ;; This function uses a non-reentrant model
  1353 ;;
  1354                           
  1355                           
  1356                           ;psect for function _lcd_put_float
  1357  0ADC                     _lcd_put_float:	
  1358  0ADC                     l2230:	
  1359                           ;incstack = 0
  1360                           ; Regs used in _lcd_put_float: [wreg-fsr0h+status,2+status,0+btemp+1+pclath+cstack]
  1361                           
  1362                           
  1363                           ;lcd.c: 153: void lcd_put_float(float val ,uint8_t lcd_position);lcd.c: 154: {;lcd.c: 15
      +                          5:     char lcd_float_ans[(5)];;lcd.c: 156:     lcd_goto(lcd_position);
  1364  0ADC  1283               	bcf	3,5	;RP0=0, select bank0
  1365  0ADD  1303               	bcf	3,6	;RP1=0, select bank0
  1366  0ADE  084D               	movf	lcd_put_float@lcd_position,w
  1367  0ADF  120A  158A  225D  120A  158A  	fcall	_lcd_goto
  1368  0AE4                     l2232:	
  1369                           
  1370                           ;lcd.c: 157:     lcd_puts(ftoa(val,lcd_float_ans,(2)));
  1371  0AE4  1283               	bcf	3,5	;RP0=0, select bank0
  1372  0AE5  1303               	bcf	3,6	;RP1=0, select bank0
  1373  0AE6  084C               	movf	lcd_put_float@val+3,w
  1374  0AE7  00B8               	movwf	ftoa@f+3
  1375  0AE8  084B               	movf	lcd_put_float@val+2,w
  1376  0AE9  00B7               	movwf	ftoa@f+2
  1377  0AEA  084A               	movf	lcd_put_float@val+1,w
  1378  0AEB  00B6               	movwf	ftoa@f+1
  1379  0AEC  0849               	movf	lcd_put_float@val,w
  1380  0AED  00B5               	movwf	ftoa@f
  1381  0AEE  304F               	movlw	(low (lcd_put_float@lcd_float_ans| 0))& (0+255)
  1382  0AEF  00CE               	movwf	??_lcd_put_float
  1383  0AF0  084E               	movf	??_lcd_put_float,w
  1384  0AF1  00B9               	movwf	ftoa@buf
  1385  0AF2  3002               	movlw	2
  1386  0AF3  00BA               	movwf	ftoa@precision
  1387  0AF4  3000               	movlw	0
  1388  0AF5  00BB               	movwf	ftoa@precision+1
  1389  0AF6  120A  118A  21B8  120A  158A  	fcall	_ftoa
  1390  0AFB  120A  158A  229E  120A  158A  	fcall	_lcd_puts
  1391  0B00                     l47:	
  1392  0B00  0008               	return
  1393  0B01                     __end_of_lcd_put_float:	
  1394                           
  1395                           	psect	text6
  1396  0A9E                     __ptext6:	
  1397 ;; *************** function _lcd_puts *****************
  1398 ;; Defined at:
  1399 ;;		line 89 in file "lcd.c"
  1400 ;; Parameters:    Size  Location     Type
  1401 ;;  s               1    wreg     PTR const unsigned char 
  1402 ;;		 -> lcd_put_float@lcd_float_ans(5), 
  1403 ;; Auto vars:     Size  Location     Type
  1404 ;;  s               1    3[COMMON] PTR const unsigned char 
  1405 ;;		 -> lcd_put_float@lcd_float_ans(5), 
  1406 ;; Return value:  Size  Location     Type
  1407 ;;                  1    wreg      void 
  1408 ;; Registers used:
  1409 ;;		wreg, fsr0l, fsr0h, status,2, status,0, pclath, cstack
  1410 ;; Tracked objects:
  1411 ;;		On entry : 0/0
  1412 ;;		On exit  : 0/0
  1413 ;;		Unchanged: 0/0
  1414 ;; Data sizes:     COMMON   BANK0   BANK1   BANK3   BANK2
  1415 ;;      Params:         0       0       0       0       0
  1416 ;;      Locals:         1       0       0       0       0
  1417 ;;      Temps:          1       0       0       0       0
  1418 ;;      Totals:         2       0       0       0       0
  1419 ;;Total ram usage:        2 bytes
  1420 ;; Hardware stack levels used:    1
  1421 ;; Hardware stack levels required when called:    1
  1422 ;; This function calls:
  1423 ;;		_lcd_write
  1424 ;; This function is called by:
  1425 ;;		_lcd_put_float
  1426 ;; This function uses a non-reentrant model
  1427 ;;
  1428                           
  1429                           
  1430                           ;psect for function _lcd_puts
  1431  0A9E                     _lcd_puts:	
  1432                           
  1433                           ;incstack = 0
  1434                           ; Regs used in _lcd_puts: [wreg-fsr0h+status,2+status,0+pclath+cstack]
  1435                           ;lcd_puts@s stored from wreg
  1436  0A9E  00F3               	movwf	lcd_puts@s
  1437  0A9F                     l2084:	
  1438                           
  1439                           ;lcd.c: 89: lcd_puts(const char * s);lcd.c: 90: {;lcd.c: 91:  RC4 = 1;
  1440  0A9F  1283               	bcf	3,5	;RP0=0, select bank0
  1441  0AA0  1303               	bcf	3,6	;RP1=0, select bank0
  1442  0AA1  1607               	bsf	7,4	;volatile
  1443                           
  1444                           ;lcd.c: 92:  while(*s)
  1445  0AA2  2AAF               	goto	l2090
  1446  0AA3                     l2086:	
  1447                           
  1448                           ;lcd.c: 93:   lcd_write(*s++);
  1449  0AA3  0873               	movf	lcd_puts@s,w
  1450  0AA4  0084               	movwf	4
  1451  0AA5  0800               	movf	0,w
  1452  0AA6  120A  158A  2369  120A  158A  	fcall	_lcd_write
  1453  0AAB                     l2088:	
  1454  0AAB  3001               	movlw	1
  1455  0AAC  00F2               	movwf	??_lcd_puts
  1456  0AAD  0872               	movf	??_lcd_puts,w
  1457  0AAE  07F3               	addwf	lcd_puts@s,f
  1458  0AAF                     l2090:	
  1459                           
  1460                           ;lcd.c: 92:  while(*s)
  1461  0AAF  0873               	movf	lcd_puts@s,w
  1462  0AB0  0084               	movwf	4
  1463  0AB1  1383               	bcf	3,7	;select IRP bank0
  1464  0AB2  0800               	movf	0,w
  1465  0AB3  1D03               	btfss	3,2
  1466  0AB4  2AB6               	goto	u3241
  1467  0AB5  2AB7               	goto	u3240
  1468  0AB6                     u3241:	
  1469  0AB6  2AA3               	goto	l2086
  1470  0AB7                     u3240:	
  1471  0AB7                     l32:	
  1472  0AB7  0008               	return
  1473  0AB8                     __end_of_lcd_puts:	
  1474                           
  1475                           	psect	text7
  1476  0A5D                     __ptext7:	
  1477 ;; *************** function _lcd_goto *****************
  1478 ;; Defined at:
  1479 ;;		line 111 in file "lcd.c"
  1480 ;; Parameters:    Size  Location     Type
  1481 ;;  pos             1    wreg     unsigned char 
  1482 ;; Auto vars:     Size  Location     Type
  1483 ;;  pos             1    2[COMMON] unsigned char 
  1484 ;; Return value:  Size  Location     Type
  1485 ;;                  1    wreg      void 
  1486 ;; Registers used:
  1487 ;;		wreg, status,2, status,0, pclath, cstack
  1488 ;; Tracked objects:
  1489 ;;		On entry : 0/0
  1490 ;;		On exit  : 0/0
  1491 ;;		Unchanged: 0/0
  1492 ;; Data sizes:     COMMON   BANK0   BANK1   BANK3   BANK2
  1493 ;;      Params:         0       0       0       0       0
  1494 ;;      Locals:         1       0       0       0       0
  1495 ;;      Temps:          0       0       0       0       0
  1496 ;;      Totals:         1       0       0       0       0
  1497 ;;Total ram usage:        1 bytes
  1498 ;; Hardware stack levels used:    1
  1499 ;; Hardware stack levels required when called:    1
  1500 ;; This function calls:
  1501 ;;		_lcd_write
  1502 ;; This function is called by:
  1503 ;;		_lcd_put_float
  1504 ;; This function uses a non-reentrant model
  1505 ;;
  1506                           
  1507                           
  1508                           ;psect for function _lcd_goto
  1509  0A5D                     _lcd_goto:	
  1510                           
  1511                           ;incstack = 0
  1512                           ; Regs used in _lcd_goto: [wreg+status,2+status,0+pclath+cstack]
  1513                           ;lcd_goto@pos stored from wreg
  1514  0A5D  00F2               	movwf	lcd_goto@pos
  1515  0A5E                     l2092:	
  1516                           
  1517                           ;lcd.c: 111: lcd_goto(unsigned char pos);lcd.c: 112: {;lcd.c: 113:  RC4 = 0;
  1518  0A5E  1283               	bcf	3,5	;RP0=0, select bank0
  1519  0A5F  1303               	bcf	3,6	;RP1=0, select bank0
  1520  0A60  1207               	bcf	7,4	;volatile
  1521  0A61                     l2094:	
  1522                           
  1523                           ;lcd.c: 114:  lcd_write(0x80+pos);
  1524  0A61  0872               	movf	lcd_goto@pos,w
  1525  0A62  3E80               	addlw	128
  1526  0A63  120A  158A  2369  120A  158A  	fcall	_lcd_write
  1527  0A68                     l38:	
  1528  0A68  0008               	return
  1529  0A69                     __end_of_lcd_goto:	
  1530                           
  1531                           	psect	text8
  1532  0B69                     __ptext8:	
  1533 ;; *************** function _lcd_write *****************
  1534 ;; Defined at:
  1535 ;;		line 55 in file "lcd.c"
  1536 ;; Parameters:    Size  Location     Type
  1537 ;;  c               1    wreg     unsigned char 
  1538 ;; Auto vars:     Size  Location     Type
  1539 ;;  c               1    1[COMMON] unsigned char 
  1540 ;; Return value:  Size  Location     Type
  1541 ;;                  1    wreg      void 
  1542 ;; Registers used:
  1543 ;;		wreg
  1544 ;; Tracked objects:
  1545 ;;		On entry : 0/0
  1546 ;;		On exit  : 0/0
  1547 ;;		Unchanged: 0/0
  1548 ;; Data sizes:     COMMON   BANK0   BANK1   BANK3   BANK2
  1549 ;;      Params:         0       0       0       0       0
  1550 ;;      Locals:         1       0       0       0       0
  1551 ;;      Temps:          1       0       0       0       0
  1552 ;;      Totals:         2       0       0       0       0
  1553 ;;Total ram usage:        2 bytes
  1554 ;; Hardware stack levels used:    1
  1555 ;; This function calls:
  1556 ;;		Nothing
  1557 ;; This function is called by:
  1558 ;;		_lcd_clear
  1559 ;;		_lcd_puts
  1560 ;;		_lcd_goto
  1561 ;;		_lcd_init
  1562 ;;		_lcd_putch
  1563 ;; This function uses a non-reentrant model
  1564 ;;
  1565                           
  1566                           
  1567                           ;psect for function _lcd_write
  1568  0B69                     _lcd_write:	
  1569                           
  1570                           ;incstack = 0
  1571                           ; Regs used in _lcd_write: [wreg]
  1572                           ;lcd_write@c stored from wreg
  1573  0B69  00F1               	movwf	lcd_write@c
  1574  0B6A                     l1726:	
  1575                           
  1576                           ;lcd.c: 55: lcd_write(unsigned char c);lcd.c: 56: {;lcd.c: 57:     lcd_bits.ch=c;
  1577  0B6A  0871               	movf	lcd_write@c,w
  1578  0B6B  00F0               	movwf	??_lcd_write
  1579  0B6C  0870               	movf	??_lcd_write,w
  1580  0B6D  1283               	bcf	3,5	;RP0=0, select bank0
  1581  0B6E  1303               	bcf	3,6	;RP1=0, select bank0
  1582  0B6F  00D7               	movwf	_lcd_bits
  1583                           
  1584                           ;lcd.c: 59:  _delay((unsigned long)((40)*(20000000/4000000.0)));
  1585  0B70  3042               	movlw	66
  1586  0B71  00F0               	movwf	??_lcd_write
  1587  0B72                     u3487:	
  1588  0B72  0BF0               	decfsz	??_lcd_write,f
  1589  0B73  2B72               	goto	u3487
  1590  0B74  0000               	nop
  1591  0B75                     l1728:	
  1592                           
  1593                           ;lcd.c: 60:     RB3 = lcd_bits.bits.b7;
  1594  0B75  1283               	bcf	3,5	;RP0=0, select bank0
  1595  0B76  1303               	bcf	3,6	;RP1=0, select bank0
  1596  0B77  1BD7               	btfsc	_lcd_bits,7
  1597  0B78  2B7A               	goto	u2201
  1598  0B79  2B7E               	goto	u2200
  1599  0B7A                     u2201:	
  1600  0B7A  1283               	bcf	3,5	;RP0=0, select bank0
  1601  0B7B  1303               	bcf	3,6	;RP1=0, select bank0
  1602  0B7C  1586               	bsf	6,3	;volatile
  1603  0B7D  2B81               	goto	u2214
  1604  0B7E                     u2200:	
  1605  0B7E  1283               	bcf	3,5	;RP0=0, select bank0
  1606  0B7F  1303               	bcf	3,6	;RP1=0, select bank0
  1607  0B80  1186               	bcf	6,3	;volatile
  1608  0B81                     u2214:	
  1609  0B81                     l1730:	
  1610                           
  1611                           ;lcd.c: 61:     RB2 = lcd_bits.bits.b6;
  1612  0B81  1B57               	btfsc	_lcd_bits,6
  1613  0B82  2B84               	goto	u2221
  1614  0B83  2B88               	goto	u2220
  1615  0B84                     u2221:	
  1616  0B84  1283               	bcf	3,5	;RP0=0, select bank0
  1617  0B85  1303               	bcf	3,6	;RP1=0, select bank0
  1618  0B86  1506               	bsf	6,2	;volatile
  1619  0B87  2B8B               	goto	u2234
  1620  0B88                     u2220:	
  1621  0B88  1283               	bcf	3,5	;RP0=0, select bank0
  1622  0B89  1303               	bcf	3,6	;RP1=0, select bank0
  1623  0B8A  1106               	bcf	6,2	;volatile
  1624  0B8B                     u2234:	
  1625  0B8B                     l1732:	
  1626                           
  1627                           ;lcd.c: 62:     RB1 = lcd_bits.bits.b5;
  1628  0B8B  1AD7               	btfsc	_lcd_bits,5
  1629  0B8C  2B8E               	goto	u2241
  1630  0B8D  2B92               	goto	u2240
  1631  0B8E                     u2241:	
  1632  0B8E  1283               	bcf	3,5	;RP0=0, select bank0
  1633  0B8F  1303               	bcf	3,6	;RP1=0, select bank0
  1634  0B90  1486               	bsf	6,1	;volatile
  1635  0B91  2B95               	goto	u2254
  1636  0B92                     u2240:	
  1637  0B92  1283               	bcf	3,5	;RP0=0, select bank0
  1638  0B93  1303               	bcf	3,6	;RP1=0, select bank0
  1639  0B94  1086               	bcf	6,1	;volatile
  1640  0B95                     u2254:	
  1641  0B95                     l1734:	
  1642                           
  1643                           ;lcd.c: 63:     RB4 = lcd_bits.bits.b4;
  1644  0B95  1A57               	btfsc	_lcd_bits,4
  1645  0B96  2B98               	goto	u2261
  1646  0B97  2B9C               	goto	u2260
  1647  0B98                     u2261:	
  1648  0B98  1283               	bcf	3,5	;RP0=0, select bank0
  1649  0B99  1303               	bcf	3,6	;RP1=0, select bank0
  1650  0B9A  1606               	bsf	6,4	;volatile
  1651  0B9B  2B9F               	goto	u2274
  1652  0B9C                     u2260:	
  1653  0B9C  1283               	bcf	3,5	;RP0=0, select bank0
  1654  0B9D  1303               	bcf	3,6	;RP1=0, select bank0
  1655  0B9E  1206               	bcf	6,4	;volatile
  1656  0B9F                     u2274:	
  1657  0B9F                     l1736:	
  1658                           
  1659                           ;lcd.c: 64:     ((RC5 = 1),(RC5=0));
  1660  0B9F  1687               	bsf	7,5	;volatile
  1661  0BA0                     l1738:	
  1662  0BA0  1287               	bcf	7,5	;volatile
  1663  0BA1                     l1740:	
  1664                           
  1665                           ;lcd.c: 66:     RB3 = lcd_bits.bits.b3;
  1666  0BA1  19D7               	btfsc	_lcd_bits,3
  1667  0BA2  2BA4               	goto	u2281
  1668  0BA3  2BA8               	goto	u2280
  1669  0BA4                     u2281:	
  1670  0BA4  1283               	bcf	3,5	;RP0=0, select bank0
  1671  0BA5  1303               	bcf	3,6	;RP1=0, select bank0
  1672  0BA6  1586               	bsf	6,3	;volatile
  1673  0BA7  2BAB               	goto	u2294
  1674  0BA8                     u2280:	
  1675  0BA8  1283               	bcf	3,5	;RP0=0, select bank0
  1676  0BA9  1303               	bcf	3,6	;RP1=0, select bank0
  1677  0BAA  1186               	bcf	6,3	;volatile
  1678  0BAB                     u2294:	
  1679  0BAB                     l1742:	
  1680                           
  1681                           ;lcd.c: 67:     RB2 = lcd_bits.bits.b2;
  1682  0BAB  1957               	btfsc	_lcd_bits,2
  1683  0BAC  2BAE               	goto	u2301
  1684  0BAD  2BB2               	goto	u2300
  1685  0BAE                     u2301:	
  1686  0BAE  1283               	bcf	3,5	;RP0=0, select bank0
  1687  0BAF  1303               	bcf	3,6	;RP1=0, select bank0
  1688  0BB0  1506               	bsf	6,2	;volatile
  1689  0BB1  2BB5               	goto	u2314
  1690  0BB2                     u2300:	
  1691  0BB2  1283               	bcf	3,5	;RP0=0, select bank0
  1692  0BB3  1303               	bcf	3,6	;RP1=0, select bank0
  1693  0BB4  1106               	bcf	6,2	;volatile
  1694  0BB5                     u2314:	
  1695  0BB5                     l1744:	
  1696                           
  1697                           ;lcd.c: 68:     RB1 = lcd_bits.bits.b1;
  1698  0BB5  18D7               	btfsc	_lcd_bits,1
  1699  0BB6  2BB8               	goto	u2321
  1700  0BB7  2BBC               	goto	u2320
  1701  0BB8                     u2321:	
  1702  0BB8  1283               	bcf	3,5	;RP0=0, select bank0
  1703  0BB9  1303               	bcf	3,6	;RP1=0, select bank0
  1704  0BBA  1486               	bsf	6,1	;volatile
  1705  0BBB  2BBF               	goto	u2334
  1706  0BBC                     u2320:	
  1707  0BBC  1283               	bcf	3,5	;RP0=0, select bank0
  1708  0BBD  1303               	bcf	3,6	;RP1=0, select bank0
  1709  0BBE  1086               	bcf	6,1	;volatile
  1710  0BBF                     u2334:	
  1711  0BBF                     l1746:	
  1712                           
  1713                           ;lcd.c: 69:     RB4 = lcd_bits.bits.b0;
  1714  0BBF  1857               	btfsc	_lcd_bits,0
  1715  0BC0  2BC2               	goto	u2341
  1716  0BC1  2BC6               	goto	u2340
  1717  0BC2                     u2341:	
  1718  0BC2  1283               	bcf	3,5	;RP0=0, select bank0
  1719  0BC3  1303               	bcf	3,6	;RP1=0, select bank0
  1720  0BC4  1606               	bsf	6,4	;volatile
  1721  0BC5  2BC9               	goto	u2354
  1722  0BC6                     u2340:	
  1723  0BC6  1283               	bcf	3,5	;RP0=0, select bank0
  1724  0BC7  1303               	bcf	3,6	;RP1=0, select bank0
  1725  0BC8  1206               	bcf	6,4	;volatile
  1726  0BC9                     u2354:	
  1727  0BC9                     l1748:	
  1728                           
  1729                           ;lcd.c: 70:     ((RC5 = 1),(RC5=0));
  1730  0BC9  1687               	bsf	7,5	;volatile
  1731  0BCA                     l1750:	
  1732  0BCA  1287               	bcf	7,5	;volatile
  1733  0BCB                     l23:	
  1734  0BCB  0008               	return
  1735  0BCC                     __end_of_lcd_write:	
  1736                           
  1737                           	psect	text9
  1738  01B8                     __ptext9:	
  1739 ;; *************** function _ftoa *****************
  1740 ;; Defined at:
  1741 ;;		line 51 in file "addtional_string.c"
  1742 ;; Parameters:    Size  Location     Type
  1743 ;;  f               4   21[BANK0 ] void 
  1744 ;;  buf             1   25[BANK0 ] PTR unsigned char 
  1745 ;;		 -> lcd_put_float@lcd_float_ans(5), 
  1746 ;;  precision       2   26[BANK0 ] int 
  1747 ;; Auto vars:     Size  Location     Type
  1748 ;;  intPart         4   35[BANK0 ] long 
  1749 ;;  ptr             1   40[BANK0 ] PTR unsigned char 
  1750 ;;		 -> lcd_put_float@lcd_float_ans(5), 
  1751 ;;  p               1   39[BANK0 ] PTR unsigned char 
  1752 ;;		 -> lcd_put_float@lcd_float_ans(5), 
  1753 ;;  c               1   34[BANK0 ] unsigned char 
  1754 ;;  p1              1   33[BANK0 ] PTR unsigned char 
  1755 ;;		 -> lcd_put_float@lcd_float_ans(5), 
  1756 ;; Return value:  Size  Location     Type
  1757 ;;                  1    wreg      PTR unsigned char 
  1758 ;; Registers used:
  1759 ;;		wreg, fsr0l, fsr0h, status,2, status,0, btemp+1, pclath, cstack
  1760 ;; Tracked objects:
  1761 ;;		On entry : 0/0
  1762 ;;		On exit  : 0/0
  1763 ;;		Unchanged: 0/0
  1764 ;; Data sizes:     COMMON   BANK0   BANK1   BANK3   BANK2
  1765 ;;      Params:         0       7       0       0       0
  1766 ;;      Locals:         0       8       0       0       0
  1767 ;;      Temps:          0       5       0       0       0
  1768 ;;      Totals:         0      20       0       0       0
  1769 ;;Total ram usage:       20 bytes
  1770 ;; Hardware stack levels used:    1
  1771 ;; Hardware stack levels required when called:    2
  1772 ;; This function calls:
  1773 ;;		___aldiv
  1774 ;;		___almod
  1775 ;;		___fladd
  1776 ;;		___flge
  1777 ;;		___flmul
  1778 ;;		___flneg
  1779 ;;		___flsub
  1780 ;;		___fltol
  1781 ;;		___xxtofl
  1782 ;; This function is called by:
  1783 ;;		_lcd_put_float
  1784 ;; This function uses a non-reentrant model
  1785 ;;
  1786                           
  1787                           
  1788                           ;psect for function _ftoa
  1789  01B8                     _ftoa:	
  1790  01B8                     l2096:	
  1791                           ;incstack = 0
  1792                           ; Regs used in _ftoa: [wreg-fsr0h+status,2+status,0+btemp+1+pclath+cstack]
  1793                           
  1794                           
  1795                           ;addtional_string.c: 51: char * ftoa(double f, char * buf, int precision);addtional_stri
      +                          ng.c: 52: {;addtional_string.c: 53:  char * ptr = buf;
  1796  01B8  1283               	bcf	3,5	;RP0=0, select bank0
  1797  01B9  1303               	bcf	3,6	;RP1=0, select bank0
  1798  01BA  0839               	movf	ftoa@buf,w
  1799  01BB  00BC               	movwf	??_ftoa
  1800  01BC  083C               	movf	??_ftoa,w
  1801  01BD  00C8               	movwf	ftoa@ptr
  1802  01BE                     l2098:	
  1803                           
  1804                           ;addtional_string.c: 55:  char * p1;;addtional_string.c: 56:  char c;;addtional_string.c
      +                          : 57:  long intPart;;addtional_string.c: 60:  if (precision > (10))
  1805  01BE  083B               	movf	ftoa@precision+1,w
  1806  01BF  3A80               	xorlw	128
  1807  01C0  00FF               	movwf	btemp+1
  1808  01C1  3080               	movlw	128
  1809  01C2  027F               	subwf	btemp+1,w
  1810  01C3  1D03               	skipz
  1811  01C4  29C7               	goto	u3255
  1812  01C5  300B               	movlw	11
  1813  01C6  023A               	subwf	ftoa@precision,w
  1814  01C7                     u3255:	
  1815  01C7  1C03               	skipc
  1816  01C8  29CA               	goto	u3251
  1817  01C9  29CB               	goto	u3250
  1818  01CA                     u3251:	
  1819  01CA  29D1               	goto	l2102
  1820  01CB                     u3250:	
  1821  01CB                     l2100:	
  1822                           
  1823                           ;addtional_string.c: 61:   precision = (10);
  1824  01CB  300A               	movlw	10
  1825  01CC  1283               	bcf	3,5	;RP0=0, select bank0
  1826  01CD  1303               	bcf	3,6	;RP1=0, select bank0
  1827  01CE  00BA               	movwf	ftoa@precision
  1828  01CF  3000               	movlw	0
  1829  01D0  00BB               	movwf	ftoa@precision+1
  1830  01D1                     l2102:	
  1831                           
  1832                           ;addtional_string.c: 64:  if (f < 0)
  1833  01D1  1283               	bcf	3,5	;RP0=0, select bank0
  1834  01D2  1303               	bcf	3,6	;RP1=0, select bank0
  1835  01D3  0838               	movf	ftoa@f+3,w
  1836  01D4  00F3               	movwf	___flge@ff1+3
  1837  01D5  0837               	movf	ftoa@f+2,w
  1838  01D6  00F2               	movwf	___flge@ff1+2
  1839  01D7  0836               	movf	ftoa@f+1,w
  1840  01D8  00F1               	movwf	___flge@ff1+1
  1841  01D9  0835               	movf	ftoa@f,w
  1842  01DA  00F0               	movwf	___flge@ff1
  1843  01DB  3000               	movlw	0
  1844  01DC  00F7               	movwf	___flge@ff2+3
  1845  01DD  3000               	movlw	0
  1846  01DE  00F6               	movwf	___flge@ff2+2
  1847  01DF  3000               	movlw	0
  1848  01E0  00F5               	movwf	___flge@ff2+1
  1849  01E1  3000               	movlw	0
  1850  01E2  00F4               	movwf	___flge@ff2
  1851  01E3  120A  118A  205C  120A  118A  	fcall	___flge
  1852  01E8  1803               	btfsc	3,0
  1853  01E9  29EB               	goto	u3261
  1854  01EA  29EC               	goto	u3260
  1855  01EB                     u3261:	
  1856  01EB  2A10               	goto	l2110
  1857  01EC                     u3260:	
  1858  01EC                     l2104:	
  1859                           
  1860                           ;addtional_string.c: 65:  {;addtional_string.c: 66:   f = -f;
  1861  01EC  1283               	bcf	3,5	;RP0=0, select bank0
  1862  01ED  1303               	bcf	3,6	;RP1=0, select bank0
  1863  01EE  0838               	movf	ftoa@f+3,w
  1864  01EF  00F3               	movwf	___flneg@f1+3
  1865  01F0  0837               	movf	ftoa@f+2,w
  1866  01F1  00F2               	movwf	___flneg@f1+2
  1867  01F2  0836               	movf	ftoa@f+1,w
  1868  01F3  00F1               	movwf	___flneg@f1+1
  1869  01F4  0835               	movf	ftoa@f,w
  1870  01F5  00F0               	movwf	___flneg@f1
  1871  01F6  120A  158A  2247  120A  118A  	fcall	___flneg
  1872  01FB  0873               	movf	?___flneg+3,w
  1873  01FC  1283               	bcf	3,5	;RP0=0, select bank0
  1874  01FD  1303               	bcf	3,6	;RP1=0, select bank0
  1875  01FE  00B8               	movwf	ftoa@f+3
  1876  01FF  0872               	movf	?___flneg+2,w
  1877  0200  00B7               	movwf	ftoa@f+2
  1878  0201  0871               	movf	?___flneg+1,w
  1879  0202  00B6               	movwf	ftoa@f+1
  1880  0203  0870               	movf	?___flneg,w
  1881  0204  00B5               	movwf	ftoa@f
  1882  0205                     l2106:	
  1883                           
  1884                           ;addtional_string.c: 67:   *ptr++ = '-';
  1885  0205  302D               	movlw	45
  1886  0206  00BC               	movwf	??_ftoa
  1887  0207  0848               	movf	ftoa@ptr,w
  1888  0208  0084               	movwf	4
  1889  0209  083C               	movf	??_ftoa,w
  1890  020A  1383               	bcf	3,7	;select IRP bank0
  1891  020B  0080               	movwf	0
  1892  020C                     l2108:	
  1893  020C  3001               	movlw	1
  1894  020D  00BC               	movwf	??_ftoa
  1895  020E  083C               	movf	??_ftoa,w
  1896  020F  07C8               	addwf	ftoa@ptr,f
  1897  0210                     l2110:	
  1898                           
  1899                           ;addtional_string.c: 70:  if (precision < 0)
  1900  0210  1283               	bcf	3,5	;RP0=0, select bank0
  1901  0211  1303               	bcf	3,6	;RP1=0, select bank0
  1902  0212  1FBB               	btfss	ftoa@precision+1,7
  1903  0213  2A15               	goto	u3271
  1904  0214  2A16               	goto	u3270
  1905  0215                     u3271:	
  1906  0215  2AE4               	goto	l2138
  1907  0216                     u3270:	
  1908  0216                     l2112:	
  1909                           
  1910                           ;addtional_string.c: 71:  {;addtional_string.c: 72:   if (f < 1.0) precision = 6;
  1911  0216  0838               	movf	ftoa@f+3,w
  1912  0217  00F3               	movwf	___flge@ff1+3
  1913  0218  0837               	movf	ftoa@f+2,w
  1914  0219  00F2               	movwf	___flge@ff1+2
  1915  021A  0836               	movf	ftoa@f+1,w
  1916  021B  00F1               	movwf	___flge@ff1+1
  1917  021C  0835               	movf	ftoa@f,w
  1918  021D  00F0               	movwf	___flge@ff1
  1919  021E  303F               	movlw	63
  1920  021F  00F7               	movwf	___flge@ff2+3
  1921  0220  3080               	movlw	128
  1922  0221  00F6               	movwf	___flge@ff2+2
  1923  0222  3000               	movlw	0
  1924  0223  00F5               	movwf	___flge@ff2+1
  1925  0224  3000               	movlw	0
  1926  0225  00F4               	movwf	___flge@ff2
  1927  0226  120A  118A  205C  120A  118A  	fcall	___flge
  1928  022B  1803               	btfsc	3,0
  1929  022C  2A2E               	goto	u3281
  1930  022D  2A2F               	goto	u3280
  1931  022E                     u3281:	
  1932  022E  2A36               	goto	l2116
  1933  022F                     u3280:	
  1934  022F                     l2114:	
  1935  022F  3006               	movlw	6
  1936  0230  1283               	bcf	3,5	;RP0=0, select bank0
  1937  0231  1303               	bcf	3,6	;RP1=0, select bank0
  1938  0232  00BA               	movwf	ftoa@precision
  1939  0233  3000               	movlw	0
  1940  0234  00BB               	movwf	ftoa@precision+1
  1941  0235  2AE4               	goto	l2138
  1942  0236                     l2116:	
  1943  0236  1283               	bcf	3,5	;RP0=0, select bank0
  1944  0237  1303               	bcf	3,6	;RP1=0, select bank0
  1945  0238  0838               	movf	ftoa@f+3,w
  1946  0239  00F3               	movwf	___flge@ff1+3
  1947  023A  0837               	movf	ftoa@f+2,w
  1948  023B  00F2               	movwf	___flge@ff1+2
  1949  023C  0836               	movf	ftoa@f+1,w
  1950  023D  00F1               	movwf	___flge@ff1+1
  1951  023E  0835               	movf	ftoa@f,w
  1952  023F  00F0               	movwf	___flge@ff1
  1953  0240  3041               	movlw	65
  1954  0241  00F7               	movwf	___flge@ff2+3
  1955  0242  3020               	movlw	32
  1956  0243  00F6               	movwf	___flge@ff2+2
  1957  0244  3000               	movlw	0
  1958  0245  00F5               	movwf	___flge@ff2+1
  1959  0246  3000               	movlw	0
  1960  0247  00F4               	movwf	___flge@ff2
  1961  0248  120A  118A  205C  120A  118A  	fcall	___flge
  1962  024D  1803               	btfsc	3,0
  1963  024E  2A50               	goto	u3291
  1964  024F  2A51               	goto	u3290
  1965  0250                     u3291:	
  1966  0250  2A58               	goto	l2120
  1967  0251                     u3290:	
  1968  0251                     l2118:	
  1969  0251  3005               	movlw	5
  1970  0252  1283               	bcf	3,5	;RP0=0, select bank0
  1971  0253  1303               	bcf	3,6	;RP1=0, select bank0
  1972  0254  00BA               	movwf	ftoa@precision
  1973  0255  3000               	movlw	0
  1974  0256  00BB               	movwf	ftoa@precision+1
  1975  0257  2AE4               	goto	l2138
  1976  0258                     l2120:	
  1977  0258  1283               	bcf	3,5	;RP0=0, select bank0
  1978  0259  1303               	bcf	3,6	;RP1=0, select bank0
  1979  025A  0838               	movf	ftoa@f+3,w
  1980  025B  00F3               	movwf	___flge@ff1+3
  1981  025C  0837               	movf	ftoa@f+2,w
  1982  025D  00F2               	movwf	___flge@ff1+2
  1983  025E  0836               	movf	ftoa@f+1,w
  1984  025F  00F1               	movwf	___flge@ff1+1
  1985  0260  0835               	movf	ftoa@f,w
  1986  0261  00F0               	movwf	___flge@ff1
  1987  0262  3042               	movlw	66
  1988  0263  00F7               	movwf	___flge@ff2+3
  1989  0264  30C8               	movlw	200
  1990  0265  00F6               	movwf	___flge@ff2+2
  1991  0266  3000               	movlw	0
  1992  0267  00F5               	movwf	___flge@ff2+1
  1993  0268  3000               	movlw	0
  1994  0269  00F4               	movwf	___flge@ff2
  1995  026A  120A  118A  205C  120A  118A  	fcall	___flge
  1996  026F  1803               	btfsc	3,0
  1997  0270  2A72               	goto	u3301
  1998  0271  2A73               	goto	u3300
  1999  0272                     u3301:	
  2000  0272  2A7A               	goto	l2124
  2001  0273                     u3300:	
  2002  0273                     l2122:	
  2003  0273  3004               	movlw	4
  2004  0274  1283               	bcf	3,5	;RP0=0, select bank0
  2005  0275  1303               	bcf	3,6	;RP1=0, select bank0
  2006  0276  00BA               	movwf	ftoa@precision
  2007  0277  3000               	movlw	0
  2008  0278  00BB               	movwf	ftoa@precision+1
  2009  0279  2AE4               	goto	l2138
  2010  027A                     l2124:	
  2011  027A  1283               	bcf	3,5	;RP0=0, select bank0
  2012  027B  1303               	bcf	3,6	;RP1=0, select bank0
  2013  027C  0838               	movf	ftoa@f+3,w
  2014  027D  00F3               	movwf	___flge@ff1+3
  2015  027E  0837               	movf	ftoa@f+2,w
  2016  027F  00F2               	movwf	___flge@ff1+2
  2017  0280  0836               	movf	ftoa@f+1,w
  2018  0281  00F1               	movwf	___flge@ff1+1
  2019  0282  0835               	movf	ftoa@f,w
  2020  0283  00F0               	movwf	___flge@ff1
  2021  0284  3044               	movlw	68
  2022  0285  00F7               	movwf	___flge@ff2+3
  2023  0286  307A               	movlw	122
  2024  0287  00F6               	movwf	___flge@ff2+2
  2025  0288  3000               	movlw	0
  2026  0289  00F5               	movwf	___flge@ff2+1
  2027  028A  3000               	movlw	0
  2028  028B  00F4               	movwf	___flge@ff2
  2029  028C  120A  118A  205C  120A  118A  	fcall	___flge
  2030  0291  1803               	btfsc	3,0
  2031  0292  2A94               	goto	u3311
  2032  0293  2A95               	goto	u3310
  2033  0294                     u3311:	
  2034  0294  2A9C               	goto	l2128
  2035  0295                     u3310:	
  2036  0295                     l2126:	
  2037  0295  3003               	movlw	3
  2038  0296  1283               	bcf	3,5	;RP0=0, select bank0
  2039  0297  1303               	bcf	3,6	;RP1=0, select bank0
  2040  0298  00BA               	movwf	ftoa@precision
  2041  0299  3000               	movlw	0
  2042  029A  00BB               	movwf	ftoa@precision+1
  2043  029B  2AE4               	goto	l2138
  2044  029C                     l2128:	
  2045  029C  1283               	bcf	3,5	;RP0=0, select bank0
  2046  029D  1303               	bcf	3,6	;RP1=0, select bank0
  2047  029E  0838               	movf	ftoa@f+3,w
  2048  029F  00F3               	movwf	___flge@ff1+3
  2049  02A0  0837               	movf	ftoa@f+2,w
  2050  02A1  00F2               	movwf	___flge@ff1+2
  2051  02A2  0836               	movf	ftoa@f+1,w
  2052  02A3  00F1               	movwf	___flge@ff1+1
  2053  02A4  0835               	movf	ftoa@f,w
  2054  02A5  00F0               	movwf	___flge@ff1
  2055  02A6  3046               	movlw	70
  2056  02A7  00F7               	movwf	___flge@ff2+3
  2057  02A8  301C               	movlw	28
  2058  02A9  00F6               	movwf	___flge@ff2+2
  2059  02AA  3040               	movlw	64
  2060  02AB  00F5               	movwf	___flge@ff2+1
  2061  02AC  3000               	movlw	0
  2062  02AD  00F4               	movwf	___flge@ff2
  2063  02AE  120A  118A  205C  120A  118A  	fcall	___flge
  2064  02B3  1803               	btfsc	3,0
  2065  02B4  2AB6               	goto	u3321
  2066  02B5  2AB7               	goto	u3320
  2067  02B6                     u3321:	
  2068  02B6  2ABE               	goto	l2132
  2069  02B7                     u3320:	
  2070  02B7                     l2130:	
  2071  02B7  3002               	movlw	2
  2072  02B8  1283               	bcf	3,5	;RP0=0, select bank0
  2073  02B9  1303               	bcf	3,6	;RP1=0, select bank0
  2074  02BA  00BA               	movwf	ftoa@precision
  2075  02BB  3000               	movlw	0
  2076  02BC  00BB               	movwf	ftoa@precision+1
  2077  02BD  2AE4               	goto	l2138
  2078  02BE                     l2132:	
  2079  02BE  1283               	bcf	3,5	;RP0=0, select bank0
  2080  02BF  1303               	bcf	3,6	;RP1=0, select bank0
  2081  02C0  0838               	movf	ftoa@f+3,w
  2082  02C1  00F3               	movwf	___flge@ff1+3
  2083  02C2  0837               	movf	ftoa@f+2,w
  2084  02C3  00F2               	movwf	___flge@ff1+2
  2085  02C4  0836               	movf	ftoa@f+1,w
  2086  02C5  00F1               	movwf	___flge@ff1+1
  2087  02C6  0835               	movf	ftoa@f,w
  2088  02C7  00F0               	movwf	___flge@ff1
  2089  02C8  3047               	movlw	71
  2090  02C9  00F7               	movwf	___flge@ff2+3
  2091  02CA  30C3               	movlw	195
  2092  02CB  00F6               	movwf	___flge@ff2+2
  2093  02CC  3050               	movlw	80
  2094  02CD  00F5               	movwf	___flge@ff2+1
  2095  02CE  3000               	movlw	0
  2096  02CF  00F4               	movwf	___flge@ff2
  2097  02D0  120A  118A  205C  120A  118A  	fcall	___flge
  2098  02D5  1803               	btfsc	3,0
  2099  02D6  2AD8               	goto	u3331
  2100  02D7  2AD9               	goto	u3330
  2101  02D8                     u3331:	
  2102  02D8  2AE0               	goto	l2136
  2103  02D9                     u3330:	
  2104  02D9                     l2134:	
  2105  02D9  3001               	movlw	1
  2106  02DA  1283               	bcf	3,5	;RP0=0, select bank0
  2107  02DB  1303               	bcf	3,6	;RP1=0, select bank0
  2108  02DC  00BA               	movwf	ftoa@precision
  2109  02DD  3000               	movlw	0
  2110  02DE  00BB               	movwf	ftoa@precision+1
  2111  02DF  2AE4               	goto	l2138
  2112  02E0                     l2136:	
  2113  02E0  1283               	bcf	3,5	;RP0=0, select bank0
  2114  02E1  1303               	bcf	3,6	;RP1=0, select bank0
  2115  02E2  01BA               	clrf	ftoa@precision
  2116  02E3  01BB               	clrf	ftoa@precision+1
  2117  02E4                     l2138:	
  2118                           
  2119                           ;addtional_string.c: 82:  if (precision)
  2120  02E4  083A               	movf	ftoa@precision,w
  2121  02E5  043B               	iorwf	ftoa@precision+1,w
  2122  02E6  1903               	btfsc	3,2
  2123  02E7  2AE9               	goto	u3341
  2124  02E8  2AEA               	goto	u3340
  2125  02E9                     u3341:	
  2126  02E9  2B2D               	goto	l2142
  2127  02EA                     u3340:	
  2128  02EA                     l2140:	
  2129                           
  2130                           ;addtional_string.c: 83:   f += rounders[precision];
  2131  02EA  083A               	movf	ftoa@precision,w
  2132  02EB  00BC               	movwf	??_ftoa
  2133  02EC  3001               	movlw	1
  2134  02ED                     u3355:	
  2135  02ED  1003               	clrc
  2136  02EE  0DBC               	rlf	??_ftoa,f
  2137  02EF  3EFF               	addlw	-1
  2138  02F0  1D03               	skipz
  2139  02F1  2AED               	goto	u3355
  2140  02F2  1003               	clrc
  2141  02F3  0D3C               	rlf	??_ftoa,w
  2142  02F4  3E01               	addlw	low ((_rounders-__stringbase)| (0+32768))
  2143  02F5  0084               	movwf	4
  2144  02F6  120A  158A  2000  120A  118A  	fcall	stringdir
  2145  02FB  00BD               	movwf	??_ftoa+1
  2146  02FC  120A  158A  2000  120A  118A  	fcall	stringdir
  2147  0301  00BE               	movwf	??_ftoa+2
  2148  0302  120A  158A  2000  120A  118A  	fcall	stringdir
  2149  0307  00BF               	movwf	??_ftoa+3
  2150  0308  120A  158A  2000  120A  118A  	fcall	stringdir
  2151  030D  00C0               	movwf	??_ftoa+4
  2152  030E  0840               	movf	??_ftoa+4,w
  2153  030F  00F3               	movwf	___fladd@b+3
  2154  0310  083F               	movf	??_ftoa+3,w
  2155  0311  00F2               	movwf	___fladd@b+2
  2156  0312  083E               	movf	??_ftoa+2,w
  2157  0313  00F1               	movwf	___fladd@b+1
  2158  0314  083D               	movf	??_ftoa+1,w
  2159  0315  00F0               	movwf	___fladd@b
  2160  0316  0838               	movf	ftoa@f+3,w
  2161  0317  00F7               	movwf	___fladd@a+3
  2162  0318  0837               	movf	ftoa@f+2,w
  2163  0319  00F6               	movwf	___fladd@a+2
  2164  031A  0836               	movf	ftoa@f+1,w
  2165  031B  00F5               	movwf	___fladd@a+1
  2166  031C  0835               	movf	ftoa@f,w
  2167  031D  00F4               	movwf	___fladd@a
  2168  031E  120A  158A  2568  120A  118A  	fcall	___fladd
  2169  0323  0873               	movf	?___fladd+3,w
  2170  0324  1283               	bcf	3,5	;RP0=0, select bank0
  2171  0325  1303               	bcf	3,6	;RP1=0, select bank0
  2172  0326  00B8               	movwf	ftoa@f+3
  2173  0327  0872               	movf	?___fladd+2,w
  2174  0328  00B7               	movwf	ftoa@f+2
  2175  0329  0871               	movf	?___fladd+1,w
  2176  032A  00B6               	movwf	ftoa@f+1
  2177  032B  0870               	movf	?___fladd,w
  2178  032C  00B5               	movwf	ftoa@f
  2179  032D                     l2142:	
  2180                           
  2181                           ;addtional_string.c: 86:  intPart = f;
  2182  032D  0838               	movf	ftoa@f+3,w
  2183  032E  00F3               	movwf	___fltol@f1+3
  2184  032F  0837               	movf	ftoa@f+2,w
  2185  0330  00F2               	movwf	___fltol@f1+2
  2186  0331  0836               	movf	ftoa@f+1,w
  2187  0332  00F1               	movwf	___fltol@f1+1
  2188  0333  0835               	movf	ftoa@f,w
  2189  0334  00F0               	movwf	___fltol@f1
  2190  0335  120A  158A  23CC  120A  118A  	fcall	___fltol
  2191  033A  0873               	movf	?___fltol+3,w
  2192  033B  1283               	bcf	3,5	;RP0=0, select bank0
  2193  033C  1303               	bcf	3,6	;RP1=0, select bank0
  2194  033D  00C6               	movwf	ftoa@intPart+3
  2195  033E  0872               	movf	?___fltol+2,w
  2196  033F  00C5               	movwf	ftoa@intPart+2
  2197  0340  0871               	movf	?___fltol+1,w
  2198  0341  00C4               	movwf	ftoa@intPart+1
  2199  0342  0870               	movf	?___fltol,w
  2200  0343  00C3               	movwf	ftoa@intPart
  2201  0344                     l2144:	
  2202                           
  2203                           ;addtional_string.c: 87:  f -= intPart;
  2204  0344  0846               	movf	ftoa@intPart+3,w
  2205  0345  00F3               	movwf	___xxtofl@val+3
  2206  0346  0845               	movf	ftoa@intPart+2,w
  2207  0347  00F2               	movwf	___xxtofl@val+2
  2208  0348  0844               	movf	ftoa@intPart+1,w
  2209  0349  00F1               	movwf	___xxtofl@val+1
  2210  034A  0843               	movf	ftoa@intPart,w
  2211  034B  00F0               	movwf	___xxtofl@val
  2212  034C  3001               	movlw	1
  2213  034D  120A  118A  20FE  120A  118A  	fcall	___xxtofl
  2214  0352  0873               	movf	?___xxtofl+3,w
  2215  0353  1283               	bcf	3,5	;RP0=0, select bank0
  2216  0354  1303               	bcf	3,6	;RP1=0, select bank0
  2217  0355  00AB               	movwf	___flsub@a+3
  2218  0356  0872               	movf	?___xxtofl+2,w
  2219  0357  00AA               	movwf	___flsub@a+2
  2220  0358  0871               	movf	?___xxtofl+1,w
  2221  0359  00A9               	movwf	___flsub@a+1
  2222  035A  0870               	movf	?___xxtofl,w
  2223  035B  00A8               	movwf	___flsub@a
  2224  035C  0838               	movf	ftoa@f+3,w
  2225  035D  00AF               	movwf	___flsub@b+3
  2226  035E  0837               	movf	ftoa@f+2,w
  2227  035F  00AE               	movwf	___flsub@b+2
  2228  0360  0836               	movf	ftoa@f+1,w
  2229  0361  00AD               	movwf	___flsub@b+1
  2230  0362  0835               	movf	ftoa@f,w
  2231  0363  00AC               	movwf	___flsub@b
  2232  0364  120A  158A  22B8  120A  118A  	fcall	___flsub
  2233  0369  1283               	bcf	3,5	;RP0=0, select bank0
  2234  036A  1303               	bcf	3,6	;RP1=0, select bank0
  2235  036B  082B               	movf	?___flsub+3,w
  2236  036C  00B8               	movwf	ftoa@f+3
  2237  036D  082A               	movf	?___flsub+2,w
  2238  036E  00B7               	movwf	ftoa@f+2
  2239  036F  0829               	movf	?___flsub+1,w
  2240  0370  00B6               	movwf	ftoa@f+1
  2241  0371  0828               	movf	?___flsub,w
  2242  0372  00B5               	movwf	ftoa@f
  2243  0373                     l2146:	
  2244                           
  2245                           ;addtional_string.c: 89:  if (!intPart)
  2246  0373  0846               	movf	ftoa@intPart+3,w
  2247  0374  0445               	iorwf	ftoa@intPart+2,w
  2248  0375  0444               	iorwf	ftoa@intPart+1,w
  2249  0376  0443               	iorwf	ftoa@intPart,w
  2250  0377  1D03               	skipz
  2251  0378  2B7A               	goto	u3361
  2252  0379  2B7B               	goto	u3360
  2253  037A                     u3361:	
  2254  037A  2B87               	goto	l2152
  2255  037B                     u3360:	
  2256  037B                     l2148:	
  2257                           
  2258                           ;addtional_string.c: 90:   *ptr++ = '0';
  2259  037B  3030               	movlw	48
  2260  037C  00BC               	movwf	??_ftoa
  2261  037D  0848               	movf	ftoa@ptr,w
  2262  037E  0084               	movwf	4
  2263  037F  083C               	movf	??_ftoa,w
  2264  0380  1383               	bcf	3,7	;select IRP bank0
  2265  0381  0080               	movwf	0
  2266  0382                     l2150:	
  2267  0382  3001               	movlw	1
  2268  0383  00BC               	movwf	??_ftoa
  2269  0384  083C               	movf	??_ftoa,w
  2270  0385  07C8               	addwf	ftoa@ptr,f
  2271  0386  2C00               	goto	l2176
  2272  0387                     l2152:	
  2273                           
  2274                           ;addtional_string.c: 92:  {;addtional_string.c: 94:   p = ptr;
  2275  0387  0848               	movf	ftoa@ptr,w
  2276  0388  00BC               	movwf	??_ftoa
  2277  0389  083C               	movf	??_ftoa,w
  2278  038A  00C7               	movwf	ftoa@p
  2279                           
  2280                           ;addtional_string.c: 97:   while (intPart)
  2281  038B  2BCE               	goto	l2160
  2282  038C                     l2154:	
  2283                           
  2284                           ;addtional_string.c: 98:   {;addtional_string.c: 99:    *p++ = '0' + intPart % 10;
  2285  038C  3000               	movlw	0
  2286  038D  00F3               	movwf	___almod@divisor+3
  2287  038E  3000               	movlw	0
  2288  038F  00F2               	movwf	___almod@divisor+2
  2289  0390  3000               	movlw	0
  2290  0391  00F1               	movwf	___almod@divisor+1
  2291  0392  300A               	movlw	10
  2292  0393  00F0               	movwf	___almod@divisor
  2293  0394  0846               	movf	ftoa@intPart+3,w
  2294  0395  00F7               	movwf	___almod@dividend+3
  2295  0396  0845               	movf	ftoa@intPart+2,w
  2296  0397  00F6               	movwf	___almod@dividend+2
  2297  0398  0844               	movf	ftoa@intPart+1,w
  2298  0399  00F5               	movwf	___almod@dividend+1
  2299  039A  0843               	movf	ftoa@intPart,w
  2300  039B  00F4               	movwf	___almod@dividend
  2301  039C  120A  158A  2446  120A  118A  	fcall	___almod
  2302  03A1  0870               	movf	?___almod,w
  2303  03A2  3E30               	addlw	48
  2304  03A3  1283               	bcf	3,5	;RP0=0, select bank0
  2305  03A4  1303               	bcf	3,6	;RP1=0, select bank0
  2306  03A5  00BC               	movwf	??_ftoa
  2307  03A6  0847               	movf	ftoa@p,w
  2308  03A7  0084               	movwf	4
  2309  03A8  083C               	movf	??_ftoa,w
  2310  03A9  1383               	bcf	3,7	;select IRP bank0
  2311  03AA  0080               	movwf	0
  2312  03AB                     l2156:	
  2313  03AB  3001               	movlw	1
  2314  03AC  00BC               	movwf	??_ftoa
  2315  03AD  083C               	movf	??_ftoa,w
  2316  03AE  07C7               	addwf	ftoa@p,f
  2317  03AF                     l2158:	
  2318                           
  2319                           ;addtional_string.c: 100:    intPart /= 10;
  2320  03AF  3000               	movlw	0
  2321  03B0  00F3               	movwf	___aldiv@divisor+3
  2322  03B1  3000               	movlw	0
  2323  03B2  00F2               	movwf	___aldiv@divisor+2
  2324  03B3  3000               	movlw	0
  2325  03B4  00F1               	movwf	___aldiv@divisor+1
  2326  03B5  300A               	movlw	10
  2327  03B6  00F0               	movwf	___aldiv@divisor
  2328  03B7  0846               	movf	ftoa@intPart+3,w
  2329  03B8  00F7               	movwf	___aldiv@dividend+3
  2330  03B9  0845               	movf	ftoa@intPart+2,w
  2331  03BA  00F6               	movwf	___aldiv@dividend+2
  2332  03BB  0844               	movf	ftoa@intPart+1,w
  2333  03BC  00F5               	movwf	___aldiv@dividend+1
  2334  03BD  0843               	movf	ftoa@intPart,w
  2335  03BE  00F4               	movwf	___aldiv@dividend
  2336  03BF  120A  158A  24CB  120A  118A  	fcall	___aldiv
  2337  03C4  0873               	movf	?___aldiv+3,w
  2338  03C5  1283               	bcf	3,5	;RP0=0, select bank0
  2339  03C6  1303               	bcf	3,6	;RP1=0, select bank0
  2340  03C7  00C6               	movwf	ftoa@intPart+3
  2341  03C8  0872               	movf	?___aldiv+2,w
  2342  03C9  00C5               	movwf	ftoa@intPart+2
  2343  03CA  0871               	movf	?___aldiv+1,w
  2344  03CB  00C4               	movwf	ftoa@intPart+1
  2345  03CC  0870               	movf	?___aldiv,w
  2346  03CD  00C3               	movwf	ftoa@intPart
  2347  03CE                     l2160:	
  2348                           
  2349                           ;addtional_string.c: 97:   while (intPart)
  2350  03CE  0846               	movf	ftoa@intPart+3,w
  2351  03CF  0445               	iorwf	ftoa@intPart+2,w
  2352  03D0  0444               	iorwf	ftoa@intPart+1,w
  2353  03D1  0443               	iorwf	ftoa@intPart,w
  2354  03D2  1D03               	skipz
  2355  03D3  2BD5               	goto	u3371
  2356  03D4  2BD6               	goto	u3370
  2357  03D5                     u3371:	
  2358  03D5  2B8C               	goto	l2154
  2359  03D6                     u3370:	
  2360  03D6                     l2162:	
  2361                           
  2362                           ;addtional_string.c: 104:   p1 = p;
  2363  03D6  0847               	movf	ftoa@p,w
  2364  03D7  00BC               	movwf	??_ftoa
  2365  03D8  083C               	movf	??_ftoa,w
  2366  03D9  00C1               	movwf	ftoa@p1
  2367                           
  2368                           ;addtional_string.c: 107:   while (p > ptr)
  2369  03DA  2BF6               	goto	l2172
  2370  03DB                     l2164:	
  2371                           
  2372                           ;addtional_string.c: 108:   {;addtional_string.c: 109:    c = *--p;
  2373  03DB  3001               	movlw	1
  2374  03DC  02C7               	subwf	ftoa@p,f
  2375  03DD  0847               	movf	ftoa@p,w
  2376  03DE  0084               	movwf	4
  2377  03DF  1383               	bcf	3,7	;select IRP bank0
  2378  03E0  0800               	movf	0,w
  2379  03E1  00BC               	movwf	??_ftoa
  2380  03E2  083C               	movf	??_ftoa,w
  2381  03E3  00C2               	movwf	ftoa@c
  2382  03E4                     l2166:	
  2383                           
  2384                           ;addtional_string.c: 110:    *p = *ptr;
  2385  03E4  0848               	movf	ftoa@ptr,w
  2386  03E5  0084               	movwf	4
  2387  03E6  0800               	movf	0,w
  2388  03E7  00BC               	movwf	??_ftoa
  2389  03E8  0847               	movf	ftoa@p,w
  2390  03E9  0084               	movwf	4
  2391  03EA  083C               	movf	??_ftoa,w
  2392  03EB  0080               	movwf	0
  2393  03EC                     l2168:	
  2394                           
  2395                           ;addtional_string.c: 111:    *ptr++ = c;
  2396  03EC  0842               	movf	ftoa@c,w
  2397  03ED  00BC               	movwf	??_ftoa
  2398  03EE  0848               	movf	ftoa@ptr,w
  2399  03EF  0084               	movwf	4
  2400  03F0  083C               	movf	??_ftoa,w
  2401  03F1  0080               	movwf	0
  2402  03F2                     l2170:	
  2403  03F2  3001               	movlw	1
  2404  03F3  00BC               	movwf	??_ftoa
  2405  03F4  083C               	movf	??_ftoa,w
  2406  03F5  07C8               	addwf	ftoa@ptr,f
  2407  03F6                     l2172:	
  2408                           
  2409                           ;addtional_string.c: 107:   while (p > ptr)
  2410  03F6  0847               	movf	ftoa@p,w
  2411  03F7  0248               	subwf	ftoa@ptr,w
  2412  03F8  1C03               	skipc
  2413  03F9  2BFB               	goto	u3381
  2414  03FA  2BFC               	goto	u3380
  2415  03FB                     u3381:	
  2416  03FB  2BDB               	goto	l2164
  2417  03FC                     u3380:	
  2418  03FC                     l2174:	
  2419                           
  2420                           ;addtional_string.c: 115:   ptr = p1;
  2421  03FC  0841               	movf	ftoa@p1,w
  2422  03FD  00BC               	movwf	??_ftoa
  2423  03FE  083C               	movf	??_ftoa,w
  2424  03FF  00C8               	movwf	ftoa@ptr
  2425  0400                     l2176:	
  2426                           
  2427                           ;addtional_string.c: 119:  if (precision)
  2428  0400  083A               	movf	ftoa@precision,w
  2429  0401  043B               	iorwf	ftoa@precision+1,w
  2430  0402  1903               	btfsc	3,2
  2431  0403  2C05               	goto	u3391
  2432  0404  2C06               	goto	u3390
  2433  0405                     u3391:	
  2434  0405  2C92               	goto	l2194
  2435  0406                     u3390:	
  2436  0406                     l2178:	
  2437                           
  2438                           ;addtional_string.c: 120:  {;addtional_string.c: 122:   *ptr++ = '.';
  2439  0406  302E               	movlw	46
  2440  0407  00BC               	movwf	??_ftoa
  2441  0408  0848               	movf	ftoa@ptr,w
  2442  0409  0084               	movwf	4
  2443  040A  083C               	movf	??_ftoa,w
  2444  040B  1383               	bcf	3,7	;select IRP bank0
  2445  040C  0080               	movwf	0
  2446  040D                     l2180:	
  2447  040D  3001               	movlw	1
  2448  040E  00BC               	movwf	??_ftoa
  2449  040F  083C               	movf	??_ftoa,w
  2450  0410  07C8               	addwf	ftoa@ptr,f
  2451                           
  2452                           ;addtional_string.c: 125:   while (precision--)
  2453  0411  2C84               	goto	l2192
  2454  0412                     l2182:	
  2455                           
  2456                           ;addtional_string.c: 126:   {;addtional_string.c: 127:    f *= 10.0;
  2457  0412  3041               	movlw	65
  2458  0413  00A3               	movwf	___flmul@b+3
  2459  0414  3020               	movlw	32
  2460  0415  00A2               	movwf	___flmul@b+2
  2461  0416  3000               	movlw	0
  2462  0417  00A1               	movwf	___flmul@b+1
  2463  0418  3000               	movlw	0
  2464  0419  00A0               	movwf	___flmul@b
  2465  041A  0838               	movf	ftoa@f+3,w
  2466  041B  00A7               	movwf	___flmul@a+3
  2467  041C  0837               	movf	ftoa@f+2,w
  2468  041D  00A6               	movwf	___flmul@a+2
  2469  041E  0836               	movf	ftoa@f+1,w
  2470  041F  00A5               	movwf	___flmul@a+1
  2471  0420  0835               	movf	ftoa@f,w
  2472  0421  00A4               	movwf	___flmul@a
  2473  0422  120A  118A  2498  120A  118A  	fcall	___flmul
  2474  0427  1283               	bcf	3,5	;RP0=0, select bank0
  2475  0428  1303               	bcf	3,6	;RP1=0, select bank0
  2476  0429  0823               	movf	?___flmul+3,w
  2477  042A  00B8               	movwf	ftoa@f+3
  2478  042B  0822               	movf	?___flmul+2,w
  2479  042C  00B7               	movwf	ftoa@f+2
  2480  042D  0821               	movf	?___flmul+1,w
  2481  042E  00B6               	movwf	ftoa@f+1
  2482  042F  0820               	movf	?___flmul,w
  2483  0430  00B5               	movwf	ftoa@f
  2484  0431                     l2184:	
  2485                           
  2486                           ;addtional_string.c: 128:    c = f;
  2487  0431  0838               	movf	ftoa@f+3,w
  2488  0432  00F3               	movwf	___fltol@f1+3
  2489  0433  0837               	movf	ftoa@f+2,w
  2490  0434  00F2               	movwf	___fltol@f1+2
  2491  0435  0836               	movf	ftoa@f+1,w
  2492  0436  00F1               	movwf	___fltol@f1+1
  2493  0437  0835               	movf	ftoa@f,w
  2494  0438  00F0               	movwf	___fltol@f1
  2495  0439  120A  158A  23CC  120A  118A  	fcall	___fltol
  2496  043E  0870               	movf	?___fltol,w
  2497  043F  1283               	bcf	3,5	;RP0=0, select bank0
  2498  0440  1303               	bcf	3,6	;RP1=0, select bank0
  2499  0441  00BC               	movwf	??_ftoa
  2500  0442  083C               	movf	??_ftoa,w
  2501  0443  00C2               	movwf	ftoa@c
  2502  0444                     l2186:	
  2503                           
  2504                           ;addtional_string.c: 129:    *ptr++ = '0' + c;
  2505  0444  0842               	movf	ftoa@c,w
  2506  0445  3E30               	addlw	48
  2507  0446  00BC               	movwf	??_ftoa
  2508  0447  0848               	movf	ftoa@ptr,w
  2509  0448  0084               	movwf	4
  2510  0449  083C               	movf	??_ftoa,w
  2511  044A  1383               	bcf	3,7	;select IRP bank0
  2512  044B  0080               	movwf	0
  2513  044C                     l2188:	
  2514  044C  3001               	movlw	1
  2515  044D  00BC               	movwf	??_ftoa
  2516  044E  083C               	movf	??_ftoa,w
  2517  044F  07C8               	addwf	ftoa@ptr,f
  2518  0450                     l2190:	
  2519                           
  2520                           ;addtional_string.c: 130:    f -= c;
  2521  0450  0842               	movf	ftoa@c,w
  2522  0451  00BC               	movwf	??_ftoa
  2523  0452  01BD               	clrf	??_ftoa+1
  2524  0453  01BE               	clrf	??_ftoa+2
  2525  0454  01BF               	clrf	??_ftoa+3
  2526  0455  083F               	movf	??_ftoa+3,w
  2527  0456  00F3               	movwf	___xxtofl@val+3
  2528  0457  083E               	movf	??_ftoa+2,w
  2529  0458  00F2               	movwf	___xxtofl@val+2
  2530  0459  083D               	movf	??_ftoa+1,w
  2531  045A  00F1               	movwf	___xxtofl@val+1
  2532  045B  083C               	movf	??_ftoa,w
  2533  045C  00F0               	movwf	___xxtofl@val
  2534  045D  3001               	movlw	1
  2535  045E  120A  118A  20FE  120A  118A  	fcall	___xxtofl
  2536  0463  0873               	movf	?___xxtofl+3,w
  2537  0464  1283               	bcf	3,5	;RP0=0, select bank0
  2538  0465  1303               	bcf	3,6	;RP1=0, select bank0
  2539  0466  00AB               	movwf	___flsub@a+3
  2540  0467  0872               	movf	?___xxtofl+2,w
  2541  0468  00AA               	movwf	___flsub@a+2
  2542  0469  0871               	movf	?___xxtofl+1,w
  2543  046A  00A9               	movwf	___flsub@a+1
  2544  046B  0870               	movf	?___xxtofl,w
  2545  046C  00A8               	movwf	___flsub@a
  2546  046D  0838               	movf	ftoa@f+3,w
  2547  046E  00AF               	movwf	___flsub@b+3
  2548  046F  0837               	movf	ftoa@f+2,w
  2549  0470  00AE               	movwf	___flsub@b+2
  2550  0471  0836               	movf	ftoa@f+1,w
  2551  0472  00AD               	movwf	___flsub@b+1
  2552  0473  0835               	movf	ftoa@f,w
  2553  0474  00AC               	movwf	___flsub@b
  2554  0475  120A  158A  22B8  120A  118A  	fcall	___flsub
  2555  047A  1283               	bcf	3,5	;RP0=0, select bank0
  2556  047B  1303               	bcf	3,6	;RP1=0, select bank0
  2557  047C  082B               	movf	?___flsub+3,w
  2558  047D  00B8               	movwf	ftoa@f+3
  2559  047E  082A               	movf	?___flsub+2,w
  2560  047F  00B7               	movwf	ftoa@f+2
  2561  0480  0829               	movf	?___flsub+1,w
  2562  0481  00B6               	movwf	ftoa@f+1
  2563  0482  0828               	movf	?___flsub,w
  2564  0483  00B5               	movwf	ftoa@f
  2565  0484                     l2192:	
  2566                           
  2567                           ;addtional_string.c: 125:   while (precision--)
  2568  0484  30FF               	movlw	255
  2569  0485  07BA               	addwf	ftoa@precision,f
  2570  0486  1803               	skipnc
  2571  0487  0ABB               	incf	ftoa@precision+1,f
  2572  0488  30FF               	movlw	255
  2573  0489  07BB               	addwf	ftoa@precision+1,f
  2574  048A  0A3A               	incf	ftoa@precision,w
  2575  048B  1D03               	skipz
  2576  048C  2C91               	goto	u3401
  2577  048D  0A3B               	incf	ftoa@precision+1,w
  2578  048E  1D03               	btfss	3,2
  2579  048F  2C91               	goto	u3401
  2580  0490  2C92               	goto	u3400
  2581  0491                     u3401:	
  2582  0491  2C12               	goto	l2182
  2583  0492                     u3400:	
  2584  0492                     l2194:	
  2585                           
  2586                           ;addtional_string.c: 135:  *ptr = 0;
  2587  0492  0848               	movf	ftoa@ptr,w
  2588  0493  0084               	movwf	4
  2589  0494  1383               	bcf	3,7	;select IRP bank0
  2590  0495  0180               	clrf	0
  2591  0496                     l2196:	
  2592                           
  2593                           ;addtional_string.c: 137:  return buf;
  2594  0496  0839               	movf	ftoa@buf,w
  2595  0497                     l128:	
  2596  0497  0008               	return
  2597  0498                     __end_of_ftoa:	
  2598                           
  2599                           	psect	text10
  2600  00FE                     __ptext10:	
  2601 ;; *************** function ___xxtofl *****************
  2602 ;; Defined at:
  2603 ;;		line 10 in file "C:\Program Files (x86)\Microchip\xc8\v2.10\pic\sources\c90\common\xxtofl.c"
  2604 ;; Parameters:    Size  Location     Type
  2605 ;;  sign            1    wreg     unsigned char 
  2606 ;;  val             4    0[COMMON] long 
  2607 ;; Auto vars:     Size  Location     Type
  2608 ;;  sign            1    8[COMMON] unsigned char 
  2609 ;;  arg             4   10[COMMON] unsigned long 
  2610 ;;  exp             1    9[COMMON] unsigned char 
  2611 ;; Return value:  Size  Location     Type
  2612 ;;                  4    0[COMMON] unsigned char 
  2613 ;; Registers used:
  2614 ;;		wreg, status,2, status,0
  2615 ;; Tracked objects:
  2616 ;;		On entry : 0/0
  2617 ;;		On exit  : 0/0
  2618 ;;		Unchanged: 0/0
  2619 ;; Data sizes:     COMMON   BANK0   BANK1   BANK3   BANK2
  2620 ;;      Params:         4       0       0       0       0
  2621 ;;      Locals:         6       0       0       0       0
  2622 ;;      Temps:          4       0       0       0       0
  2623 ;;      Totals:        14       0       0       0       0
  2624 ;;Total ram usage:       14 bytes
  2625 ;; Hardware stack levels used:    1
  2626 ;; This function calls:
  2627 ;;		Nothing
  2628 ;; This function is called by:
  2629 ;;		_ftoa
  2630 ;; This function uses a non-reentrant model
  2631 ;;
  2632                           
  2633                           
  2634                           ;psect for function ___xxtofl
  2635  00FE                     ___xxtofl:	
  2636                           
  2637                           ;incstack = 0
  2638                           ; Regs used in ___xxtofl: [wreg+status,2+status,0]
  2639                           ;___xxtofl@sign stored from wreg
  2640  00FE  00F8               	movwf	___xxtofl@sign
  2641  00FF                     l2034:	
  2642  00FF  0878               	movf	___xxtofl@sign,w
  2643  0100  1903               	btfsc	3,2
  2644  0101  2903               	goto	u3101
  2645  0102  2904               	goto	u3100
  2646  0103                     u3101:	
  2647  0103  2918               	goto	l2040
  2648  0104                     u3100:	
  2649  0104                     l2036:	
  2650  0104  1FF3               	btfss	___xxtofl@val+3,7
  2651  0105  2907               	goto	u3111
  2652  0106  2908               	goto	u3110
  2653  0107                     u3111:	
  2654  0107  2918               	goto	l2040
  2655  0108                     u3110:	
  2656  0108                     l2038:	
  2657  0108  0970               	comf	___xxtofl@val,w
  2658  0109  00FA               	movwf	___xxtofl@arg
  2659  010A  0971               	comf	___xxtofl@val+1,w
  2660  010B  00FB               	movwf	___xxtofl@arg+1
  2661  010C  0972               	comf	___xxtofl@val+2,w
  2662  010D  00FC               	movwf	___xxtofl@arg+2
  2663  010E  0973               	comf	___xxtofl@val+3,w
  2664  010F  00FD               	movwf	___xxtofl@arg+3
  2665  0110  0AFA               	incf	___xxtofl@arg,f
  2666  0111  1903               	skipnz
  2667  0112  0AFB               	incf	___xxtofl@arg+1,f
  2668  0113  1903               	skipnz
  2669  0114  0AFC               	incf	___xxtofl@arg+2,f
  2670  0115  1903               	skipnz
  2671  0116  0AFD               	incf	___xxtofl@arg+3,f
  2672  0117  2920               	goto	l644
  2673  0118                     l2040:	
  2674  0118  0873               	movf	___xxtofl@val+3,w
  2675  0119  00FD               	movwf	___xxtofl@arg+3
  2676  011A  0872               	movf	___xxtofl@val+2,w
  2677  011B  00FC               	movwf	___xxtofl@arg+2
  2678  011C  0871               	movf	___xxtofl@val+1,w
  2679  011D  00FB               	movwf	___xxtofl@arg+1
  2680  011E  0870               	movf	___xxtofl@val,w
  2681  011F  00FA               	movwf	___xxtofl@arg
  2682  0120                     l644:	
  2683  0120  0873               	movf	___xxtofl@val+3,w
  2684  0121  0472               	iorwf	___xxtofl@val+2,w
  2685  0122  0471               	iorwf	___xxtofl@val+1,w
  2686  0123  0470               	iorwf	___xxtofl@val,w
  2687  0124  1D03               	skipz
  2688  0125  2927               	goto	u3121
  2689  0126  2928               	goto	u3120
  2690  0127                     u3121:	
  2691  0127  2931               	goto	l2046
  2692  0128                     u3120:	
  2693  0128                     l2042:	
  2694  0128  3000               	movlw	0
  2695  0129  00F3               	movwf	?___xxtofl+3
  2696  012A  3000               	movlw	0
  2697  012B  00F2               	movwf	?___xxtofl+2
  2698  012C  3000               	movlw	0
  2699  012D  00F1               	movwf	?___xxtofl+1
  2700  012E  3000               	movlw	0
  2701  012F  00F0               	movwf	?___xxtofl
  2702  0130  29B7               	goto	l646
  2703  0131                     l2046:	
  2704  0131  3096               	movlw	150
  2705  0132  00F4               	movwf	??___xxtofl
  2706  0133  0874               	movf	??___xxtofl,w
  2707  0134  00F9               	movwf	___xxtofl@exp
  2708  0135  2943               	goto	l2050
  2709  0136                     l2048:	
  2710  0136  3001               	movlw	1
  2711  0137  00F4               	movwf	??___xxtofl
  2712  0138  0874               	movf	??___xxtofl,w
  2713  0139  07F9               	addwf	___xxtofl@exp,f
  2714  013A  3001               	movlw	1
  2715  013B                     u3135:	
  2716  013B  1003               	clrc
  2717  013C  0CFD               	rrf	___xxtofl@arg+3,f
  2718  013D  0CFC               	rrf	___xxtofl@arg+2,f
  2719  013E  0CFB               	rrf	___xxtofl@arg+1,f
  2720  013F  0CFA               	rrf	___xxtofl@arg,f
  2721  0140  3EFF               	addlw	-1
  2722  0141  1D03               	skipz
  2723  0142  293B               	goto	u3135
  2724  0143                     l2050:	
  2725  0143  30FE               	movlw	254
  2726  0144  057D               	andwf	___xxtofl@arg+3,w
  2727  0145  1D03               	btfss	3,2
  2728  0146  2948               	goto	u3141
  2729  0147  2949               	goto	u3140
  2730  0148                     u3141:	
  2731  0148  2936               	goto	l2048
  2732  0149                     u3140:	
  2733  0149  2965               	goto	l650
  2734  014A                     l2052:	
  2735  014A  3001               	movlw	1
  2736  014B  00F4               	movwf	??___xxtofl
  2737  014C  0874               	movf	??___xxtofl,w
  2738  014D  07F9               	addwf	___xxtofl@exp,f
  2739  014E                     l2054:	
  2740  014E  3001               	movlw	1
  2741  014F  07FA               	addwf	___xxtofl@arg,f
  2742  0150  3000               	movlw	0
  2743  0151  1803               	skipnc
  2744  0152  3001               	movlw	1
  2745  0153  07FB               	addwf	___xxtofl@arg+1,f
  2746  0154  3000               	movlw	0
  2747  0155  1803               	skipnc
  2748  0156  3001               	movlw	1
  2749  0157  07FC               	addwf	___xxtofl@arg+2,f
  2750  0158  3000               	movlw	0
  2751  0159  1803               	skipnc
  2752  015A  3001               	movlw	1
  2753  015B  07FD               	addwf	___xxtofl@arg+3,f
  2754  015C                     l2056:	
  2755  015C  3001               	movlw	1
  2756  015D                     u3155:	
  2757  015D  1003               	clrc
  2758  015E  0CFD               	rrf	___xxtofl@arg+3,f
  2759  015F  0CFC               	rrf	___xxtofl@arg+2,f
  2760  0160  0CFB               	rrf	___xxtofl@arg+1,f
  2761  0161  0CFA               	rrf	___xxtofl@arg,f
  2762  0162  3EFF               	addlw	-1
  2763  0163  1D03               	skipz
  2764  0164  295D               	goto	u3155
  2765  0165                     l650:	
  2766  0165  30FF               	movlw	255
  2767  0166  057D               	andwf	___xxtofl@arg+3,w
  2768  0167  1D03               	btfss	3,2
  2769  0168  296A               	goto	u3161
  2770  0169  296B               	goto	u3160
  2771  016A                     u3161:	
  2772  016A  294A               	goto	l2052
  2773  016B                     u3160:	
  2774  016B  2977               	goto	l2060
  2775  016C                     l2058:	
  2776  016C  3001               	movlw	1
  2777  016D  02F9               	subwf	___xxtofl@exp,f
  2778  016E  3001               	movlw	1
  2779  016F  00F4               	movwf	??___xxtofl
  2780  0170                     u3175:	
  2781  0170  1003               	clrc
  2782  0171  0DFA               	rlf	___xxtofl@arg,f
  2783  0172  0DFB               	rlf	___xxtofl@arg+1,f
  2784  0173  0DFC               	rlf	___xxtofl@arg+2,f
  2785  0174  0DFD               	rlf	___xxtofl@arg+3,f
  2786  0175  0BF4               	decfsz	??___xxtofl,f
  2787  0176  2970               	goto	u3175
  2788  0177                     l2060:	
  2789  0177  1BFC               	btfsc	___xxtofl@arg+2,7
  2790  0178  297A               	goto	u3181
  2791  0179  297B               	goto	u3180
  2792  017A                     u3181:	
  2793  017A  2981               	goto	l657
  2794  017B                     u3180:	
  2795  017B                     l2062:	
  2796  017B  3002               	movlw	2
  2797  017C  0279               	subwf	___xxtofl@exp,w
  2798  017D  1803               	skipnc
  2799  017E  2980               	goto	u3191
  2800  017F  2981               	goto	u3190
  2801  0180                     u3191:	
  2802  0180  296C               	goto	l2058
  2803  0181                     u3190:	
  2804  0181                     l657:	
  2805  0181  1879               	btfsc	___xxtofl@exp,0
  2806  0182  2984               	goto	u3201
  2807  0183  2985               	goto	u3200
  2808  0184                     u3201:	
  2809  0184  298D               	goto	l658
  2810  0185                     u3200:	
  2811  0185                     l2064:	
  2812  0185  30FF               	movlw	255
  2813  0186  05FA               	andwf	___xxtofl@arg,f
  2814  0187  30FF               	movlw	255
  2815  0188  05FB               	andwf	___xxtofl@arg+1,f
  2816  0189  307F               	movlw	127
  2817  018A  05FC               	andwf	___xxtofl@arg+2,f
  2818  018B  30FF               	movlw	255
  2819  018C  05FD               	andwf	___xxtofl@arg+3,f
  2820  018D                     l658:	
  2821  018D  1003               	clrc
  2822  018E  0CF9               	rrf	___xxtofl@exp,f
  2823  018F                     l2066:	
  2824  018F  0879               	movf	___xxtofl@exp,w
  2825  0190  00F4               	movwf	??___xxtofl
  2826  0191  01F5               	clrf	??___xxtofl+1
  2827  0192  01F6               	clrf	??___xxtofl+2
  2828  0193  01F7               	clrf	??___xxtofl+3
  2829  0194  3018               	movlw	24
  2830  0195                     u3215:	
  2831  0195  1003               	clrc
  2832  0196  0DF4               	rlf	??___xxtofl,f
  2833  0197  0DF5               	rlf	??___xxtofl+1,f
  2834  0198  0DF6               	rlf	??___xxtofl+2,f
  2835  0199  0DF7               	rlf	??___xxtofl+3,f
  2836  019A                     u3210:	
  2837  019A  3EFF               	addlw	-1
  2838  019B  1D03               	skipz
  2839  019C  2995               	goto	u3215
  2840  019D  0874               	movf	??___xxtofl,w
  2841  019E  04FA               	iorwf	___xxtofl@arg,f
  2842  019F  0875               	movf	??___xxtofl+1,w
  2843  01A0  04FB               	iorwf	___xxtofl@arg+1,f
  2844  01A1  0876               	movf	??___xxtofl+2,w
  2845  01A2  04FC               	iorwf	___xxtofl@arg+2,f
  2846  01A3  0877               	movf	??___xxtofl+3,w
  2847  01A4  04FD               	iorwf	___xxtofl@arg+3,f
  2848  01A5                     l2068:	
  2849  01A5  0878               	movf	___xxtofl@sign,w
  2850  01A6  1903               	btfsc	3,2
  2851  01A7  29A9               	goto	u3221
  2852  01A8  29AA               	goto	u3220
  2853  01A9                     u3221:	
  2854  01A9  29AF               	goto	l2074
  2855  01AA                     u3220:	
  2856  01AA                     l2070:	
  2857  01AA  1FF3               	btfss	___xxtofl@val+3,7
  2858  01AB  29AD               	goto	u3231
  2859  01AC  29AE               	goto	u3230
  2860  01AD                     u3231:	
  2861  01AD  29AF               	goto	l2074
  2862  01AE                     u3230:	
  2863  01AE                     l2072:	
  2864  01AE  17FD               	bsf	___xxtofl@arg+3,7
  2865  01AF                     l2074:	
  2866  01AF  087D               	movf	___xxtofl@arg+3,w
  2867  01B0  00F3               	movwf	?___xxtofl+3
  2868  01B1  087C               	movf	___xxtofl@arg+2,w
  2869  01B2  00F2               	movwf	?___xxtofl+2
  2870  01B3  087B               	movf	___xxtofl@arg+1,w
  2871  01B4  00F1               	movwf	?___xxtofl+1
  2872  01B5  087A               	movf	___xxtofl@arg,w
  2873  01B6  00F0               	movwf	?___xxtofl
  2874  01B7                     l646:	
  2875  01B7  0008               	return
  2876  01B8                     __end_of___xxtofl:	
  2877                           
  2878                           	psect	text11
  2879  0BCC                     __ptext11:	
  2880 ;; *************** function ___fltol *****************
  2881 ;; Defined at:
  2882 ;;		line 43 in file "C:\Program Files (x86)\Microchip\xc8\v2.10\pic\sources\c90\common\fltol.c"
  2883 ;; Parameters:    Size  Location     Type
  2884 ;;  f1              4    0[COMMON] unsigned char 
  2885 ;; Auto vars:     Size  Location     Type
  2886 ;;  exp1            1   10[COMMON] unsigned char 
  2887 ;;  sign1           1    9[COMMON] unsigned char 
  2888 ;; Return value:  Size  Location     Type
  2889 ;;                  4    0[COMMON] long 
  2890 ;; Registers used:
  2891 ;;		wreg, status,2, status,0
  2892 ;; Tracked objects:
  2893 ;;		On entry : 0/0
  2894 ;;		On exit  : 0/0
  2895 ;;		Unchanged: 0/0
  2896 ;; Data sizes:     COMMON   BANK0   BANK1   BANK3   BANK2
  2897 ;;      Params:         4       0       0       0       0
  2898 ;;      Locals:         2       0       0       0       0
  2899 ;;      Temps:          5       0       0       0       0
  2900 ;;      Totals:        11       0       0       0       0
  2901 ;;Total ram usage:       11 bytes
  2902 ;; Hardware stack levels used:    1
  2903 ;; This function calls:
  2904 ;;		Nothing
  2905 ;; This function is called by:
  2906 ;;		_ftoa
  2907 ;; This function uses a non-reentrant model
  2908 ;;
  2909                           
  2910                           
  2911                           ;psect for function ___fltol
  2912  0BCC                     ___fltol:	
  2913  0BCC                     l1852:	
  2914                           ;incstack = 0
  2915                           ; Regs used in ___fltol: [wreg+status,2+status,0]
  2916                           
  2917  0BCC  1003               	clrc
  2918  0BCD  0D72               	rlf	___fltol@f1+2,w
  2919  0BCE  0D73               	rlf	___fltol@f1+3,w
  2920  0BCF  00F4               	movwf	??___fltol
  2921  0BD0  0874               	movf	??___fltol,w
  2922  0BD1  00FA               	movwf	___fltol@exp1
  2923  0BD2  087A               	movf	___fltol@exp1,w
  2924  0BD3  1D03               	btfss	3,2
  2925  0BD4  2BD6               	goto	u2631
  2926  0BD5  2BD7               	goto	u2630
  2927  0BD6                     u2631:	
  2928  0BD6  2BE0               	goto	l1858
  2929  0BD7                     u2630:	
  2930  0BD7                     l1854:	
  2931  0BD7  3000               	movlw	0
  2932  0BD8  00F3               	movwf	?___fltol+3
  2933  0BD9  3000               	movlw	0
  2934  0BDA  00F2               	movwf	?___fltol+2
  2935  0BDB  3000               	movlw	0
  2936  0BDC  00F1               	movwf	?___fltol+1
  2937  0BDD  3000               	movlw	0
  2938  0BDE  00F0               	movwf	?___fltol
  2939  0BDF  2C45               	goto	l403
  2940  0BE0                     l1858:	
  2941  0BE0  0870               	movf	___fltol@f1,w
  2942  0BE1  00F4               	movwf	??___fltol
  2943  0BE2  0871               	movf	___fltol@f1+1,w
  2944  0BE3  00F5               	movwf	??___fltol+1
  2945  0BE4  0872               	movf	___fltol@f1+2,w
  2946  0BE5  00F6               	movwf	??___fltol+2
  2947  0BE6  0873               	movf	___fltol@f1+3,w
  2948  0BE7  00F7               	movwf	??___fltol+3
  2949  0BE8  301F               	movlw	31
  2950  0BE9                     u2645:	
  2951  0BE9  1003               	clrc
  2952  0BEA  0CF7               	rrf	??___fltol+3,f
  2953  0BEB  0CF6               	rrf	??___fltol+2,f
  2954  0BEC  0CF5               	rrf	??___fltol+1,f
  2955  0BED  0CF4               	rrf	??___fltol,f
  2956  0BEE                     u2640:	
  2957  0BEE  3EFF               	addlw	-1
  2958  0BEF  1D03               	skipz
  2959  0BF0  2BE9               	goto	u2645
  2960  0BF1  0874               	movf	??___fltol,w
  2961  0BF2  00F8               	movwf	??___fltol+4
  2962  0BF3  0878               	movf	??___fltol+4,w
  2963  0BF4  00F9               	movwf	___fltol@sign1
  2964  0BF5                     l1860:	
  2965  0BF5  17F2               	bsf	___fltol@f1+2,7
  2966  0BF6                     l1862:	
  2967  0BF6  30FF               	movlw	255
  2968  0BF7  05F0               	andwf	___fltol@f1,f
  2969  0BF8  30FF               	movlw	255
  2970  0BF9  05F1               	andwf	___fltol@f1+1,f
  2971  0BFA  30FF               	movlw	255
  2972  0BFB  05F2               	andwf	___fltol@f1+2,f
  2973  0BFC  3000               	movlw	0
  2974  0BFD  05F3               	andwf	___fltol@f1+3,f
  2975  0BFE                     l1864:	
  2976  0BFE  3096               	movlw	150
  2977  0BFF  02FA               	subwf	___fltol@exp1,f
  2978  0C00                     l1866:	
  2979  0C00  1FFA               	btfss	___fltol@exp1,7
  2980  0C01  2C03               	goto	u2651
  2981  0C02  2C04               	goto	u2650
  2982  0C03                     u2651:	
  2983  0C03  2C1E               	goto	l1876
  2984  0C04                     u2650:	
  2985  0C04                     l1868:	
  2986  0C04  087A               	movf	___fltol@exp1,w
  2987  0C05  3A80               	xorlw	128
  2988  0C06  3E97               	addlw	151
  2989  0C07  1803               	skipnc
  2990  0C08  2C0A               	goto	u2661
  2991  0C09  2C0B               	goto	u2660
  2992  0C0A                     u2661:	
  2993  0C0A  2C0C               	goto	l1874
  2994  0C0B                     u2660:	
  2995  0C0B  2BD7               	goto	l1854
  2996  0C0C                     l1874:	
  2997  0C0C  3001               	movlw	1
  2998  0C0D                     u2675:	
  2999  0C0D  1003               	clrc
  3000  0C0E  0CF3               	rrf	___fltol@f1+3,f
  3001  0C0F  0CF2               	rrf	___fltol@f1+2,f
  3002  0C10  0CF1               	rrf	___fltol@f1+1,f
  3003  0C11  0CF0               	rrf	___fltol@f1,f
  3004  0C12  3EFF               	addlw	-1
  3005  0C13  1D03               	skipz
  3006  0C14  2C0D               	goto	u2675
  3007  0C15  3001               	movlw	1
  3008  0C16  00F4               	movwf	??___fltol
  3009  0C17  0874               	movf	??___fltol,w
  3010  0C18  07FA               	addwf	___fltol@exp1,f
  3011  0C19  1D03               	btfss	3,2
  3012  0C1A  2C1C               	goto	u2681
  3013  0C1B  2C1D               	goto	u2680
  3014  0C1C                     u2681:	
  3015  0C1C  2C0C               	goto	l1874
  3016  0C1D                     u2680:	
  3017  0C1D  2C35               	goto	l1884
  3018  0C1E                     l1876:	
  3019  0C1E  3020               	movlw	32
  3020  0C1F  027A               	subwf	___fltol@exp1,w
  3021  0C20  1C03               	skipc
  3022  0C21  2C23               	goto	u2691
  3023  0C22  2C24               	goto	u2690
  3024  0C23                     u2691:	
  3025  0C23  2C30               	goto	l410
  3026  0C24                     u2690:	
  3027  0C24  2BD7               	goto	l1854
  3028  0C25                     l1882:	
  3029  0C25  3001               	movlw	1
  3030  0C26  00F4               	movwf	??___fltol
  3031  0C27                     u2705:	
  3032  0C27  1003               	clrc
  3033  0C28  0DF0               	rlf	___fltol@f1,f
  3034  0C29  0DF1               	rlf	___fltol@f1+1,f
  3035  0C2A  0DF2               	rlf	___fltol@f1+2,f
  3036  0C2B  0DF3               	rlf	___fltol@f1+3,f
  3037  0C2C  0BF4               	decfsz	??___fltol,f
  3038  0C2D  2C27               	goto	u2705
  3039  0C2E  3001               	movlw	1
  3040  0C2F  02FA               	subwf	___fltol@exp1,f
  3041  0C30                     l410:	
  3042  0C30  087A               	movf	___fltol@exp1,w
  3043  0C31  1D03               	btfss	3,2
  3044  0C32  2C34               	goto	u2711
  3045  0C33  2C35               	goto	u2710
  3046  0C34                     u2711:	
  3047  0C34  2C25               	goto	l1882
  3048  0C35                     u2710:	
  3049  0C35                     l1884:	
  3050  0C35  0879               	movf	___fltol@sign1,w
  3051  0C36  1903               	btfsc	3,2
  3052  0C37  2C39               	goto	u2721
  3053  0C38  2C3A               	goto	u2720
  3054  0C39                     u2721:	
  3055  0C39  2C45               	goto	l413
  3056  0C3A                     u2720:	
  3057  0C3A                     l1886:	
  3058  0C3A  09F0               	comf	___fltol@f1,f
  3059  0C3B  09F1               	comf	___fltol@f1+1,f
  3060  0C3C  09F2               	comf	___fltol@f1+2,f
  3061  0C3D  09F3               	comf	___fltol@f1+3,f
  3062  0C3E  0AF0               	incf	___fltol@f1,f
  3063  0C3F  1903               	skipnz
  3064  0C40  0AF1               	incf	___fltol@f1+1,f
  3065  0C41  1903               	skipnz
  3066  0C42  0AF2               	incf	___fltol@f1+2,f
  3067  0C43  1903               	skipnz
  3068  0C44  0AF3               	incf	___fltol@f1+3,f
  3069  0C45                     l413:	
  3070  0C45                     l403:	
  3071  0C45  0008               	return
  3072  0C46                     __end_of___fltol:	
  3073                           
  3074                           	psect	text12
  3075  0AB8                     __ptext12:	
  3076 ;; *************** function ___flsub *****************
  3077 ;; Defined at:
  3078 ;;		line 242 in file "C:\Program Files (x86)\Microchip\xc8\v2.10\pic\sources\c90\common\sprcadd.c"
  3079 ;; Parameters:    Size  Location     Type
  3080 ;;  a               4    8[BANK0 ] long 
  3081 ;;  b               4   12[BANK0 ] long 
  3082 ;; Auto vars:     Size  Location     Type
  3083 ;;		None
  3084 ;; Return value:  Size  Location     Type
  3085 ;;                  4    8[BANK0 ] long 
  3086 ;; Registers used:
  3087 ;;		wreg, status,2, status,0, btemp+1, pclath, cstack
  3088 ;; Tracked objects:
  3089 ;;		On entry : 0/0
  3090 ;;		On exit  : 0/0
  3091 ;;		Unchanged: 0/0
  3092 ;; Data sizes:     COMMON   BANK0   BANK1   BANK3   BANK2
  3093 ;;      Params:         0       8       0       0       0
  3094 ;;      Locals:         0       0       0       0       0
  3095 ;;      Temps:          0       0       0       0       0
  3096 ;;      Totals:         0       8       0       0       0
  3097 ;;Total ram usage:        8 bytes
  3098 ;; Hardware stack levels used:    1
  3099 ;; Hardware stack levels required when called:    1
  3100 ;; This function calls:
  3101 ;;		___fladd
  3102 ;; This function is called by:
  3103 ;;		_ftoa
  3104 ;; This function uses a non-reentrant model
  3105 ;;
  3106                           
  3107                           
  3108                           ;psect for function ___flsub
  3109  0AB8                     ___flsub:	
  3110  0AB8                     l1888:	
  3111                           ;incstack = 0
  3112                           ; Regs used in ___flsub: [wreg+status,2+status,0+btemp+1+pclath+cstack]
  3113                           
  3114  0AB8  3080               	movlw	128
  3115  0AB9  1283               	bcf	3,5	;RP0=0, select bank0
  3116  0ABA  1303               	bcf	3,6	;RP1=0, select bank0
  3117  0ABB  06AB               	xorwf	___flsub@a+3,f
  3118  0ABC                     l1890:	
  3119  0ABC  082F               	movf	___flsub@b+3,w
  3120  0ABD  00F3               	movwf	___fladd@b+3
  3121  0ABE  082E               	movf	___flsub@b+2,w
  3122  0ABF  00F2               	movwf	___fladd@b+2
  3123  0AC0  082D               	movf	___flsub@b+1,w
  3124  0AC1  00F1               	movwf	___fladd@b+1
  3125  0AC2  082C               	movf	___flsub@b,w
  3126  0AC3  00F0               	movwf	___fladd@b
  3127  0AC4  082B               	movf	___flsub@a+3,w
  3128  0AC5  00F7               	movwf	___fladd@a+3
  3129  0AC6  082A               	movf	___flsub@a+2,w
  3130  0AC7  00F6               	movwf	___fladd@a+2
  3131  0AC8  0829               	movf	___flsub@a+1,w
  3132  0AC9  00F5               	movwf	___fladd@a+1
  3133  0ACA  0828               	movf	___flsub@a,w
  3134  0ACB  00F4               	movwf	___fladd@a
  3135  0ACC  120A  158A  2568  120A  158A  	fcall	___fladd
  3136  0AD1  0873               	movf	?___fladd+3,w
  3137  0AD2  1283               	bcf	3,5	;RP0=0, select bank0
  3138  0AD3  1303               	bcf	3,6	;RP1=0, select bank0
  3139  0AD4  00AB               	movwf	?___flsub+3
  3140  0AD5  0872               	movf	?___fladd+2,w
  3141  0AD6  00AA               	movwf	?___flsub+2
  3142  0AD7  0871               	movf	?___fladd+1,w
  3143  0AD8  00A9               	movwf	?___flsub+1
  3144  0AD9  0870               	movf	?___fladd,w
  3145  0ADA  00A8               	movwf	?___flsub
  3146  0ADB                     l556:	
  3147  0ADB  0008               	return
  3148  0ADC                     __end_of___flsub:	
  3149                           
  3150                           	psect	text13
  3151  0D68                     __ptext13:	
  3152 ;; *************** function ___fladd *****************
  3153 ;; Defined at:
  3154 ;;		line 10 in file "C:\Program Files (x86)\Microchip\xc8\v2.10\pic\sources\c90\common\sprcadd.c"
  3155 ;; Parameters:    Size  Location     Type
  3156 ;;  b               4    0[COMMON] long 
  3157 ;;  a               4    4[COMMON] long 
  3158 ;; Auto vars:     Size  Location     Type
  3159 ;;  grs             1   11[COMMON] unsigned char 
  3160 ;;  bexp            1   10[COMMON] unsigned char 
  3161 ;;  aexp            1    9[COMMON] unsigned char 
  3162 ;;  signs           1    8[COMMON] unsigned char 
  3163 ;; Return value:  Size  Location     Type
  3164 ;;                  4    0[COMMON] unsigned char 
  3165 ;; Registers used:
  3166 ;;		wreg, status,2, status,0, btemp+1
  3167 ;; Tracked objects:
  3168 ;;		On entry : 0/0
  3169 ;;		On exit  : 0/0
  3170 ;;		Unchanged: 0/0
  3171 ;; Data sizes:     COMMON   BANK0   BANK1   BANK3   BANK2
  3172 ;;      Params:         8       0       0       0       0
  3173 ;;      Locals:         4       0       0       0       0
  3174 ;;      Temps:          0       8       0       0       0
  3175 ;;      Totals:        12       8       0       0       0
  3176 ;;Total ram usage:       20 bytes
  3177 ;; Hardware stack levels used:    1
  3178 ;; This function calls:
  3179 ;;		Nothing
  3180 ;; This function is called by:
  3181 ;;		_ftoa
  3182 ;;		___flsub
  3183 ;; This function uses a non-reentrant model
  3184 ;;
  3185                           
  3186                           
  3187                           ;psect for function ___fladd
  3188  0D68                     ___fladd:	
  3189  0D68                     l1518:	
  3190                           ;incstack = 0
  3191                           ; Regs used in ___fladd: [wreg+status,2+status,0+btemp+1]
  3192                           
  3193  0D68  0873               	movf	___fladd@b+3,w
  3194  0D69  3980               	andlw	128
  3195  0D6A  1283               	bcf	3,5	;RP0=0, select bank0
  3196  0D6B  1303               	bcf	3,6	;RP1=0, select bank0
  3197  0D6C  00A0               	movwf	??___fladd
  3198  0D6D  0820               	movf	??___fladd,w
  3199  0D6E  00F8               	movwf	___fladd@signs
  3200  0D6F                     l1520:	
  3201  0D6F  0873               	movf	___fladd@b+3,w
  3202  0D70  00A0               	movwf	??___fladd
  3203  0D71  0720               	addwf	??___fladd,w
  3204  0D72  00A1               	movwf	??___fladd+1
  3205  0D73  0821               	movf	??___fladd+1,w
  3206  0D74  00FA               	movwf	___fladd@bexp
  3207  0D75                     l1522:	
  3208  0D75  1FF2               	btfss	___fladd@b+2,7
  3209  0D76  2D78               	goto	u1711
  3210  0D77  2D79               	goto	u1710
  3211  0D78                     u1711:	
  3212  0D78  2D7A               	goto	l1526
  3213  0D79                     u1710:	
  3214  0D79                     l1524:	
  3215  0D79  147A               	bsf	___fladd@bexp,0
  3216  0D7A                     l1526:	
  3217  0D7A  087A               	movf	___fladd@bexp,w
  3218  0D7B  1903               	btfsc	3,2
  3219  0D7C  2D7E               	goto	u1721
  3220  0D7D  2D7F               	goto	u1720
  3221  0D7E                     u1721:	
  3222  0D7E  2D8F               	goto	l1536
  3223  0D7F                     u1720:	
  3224  0D7F                     l1528:	
  3225  0D7F  0A7A               	incf	___fladd@bexp,w
  3226  0D80  1D03               	btfss	3,2
  3227  0D81  2D83               	goto	u1731
  3228  0D82  2D84               	goto	u1730
  3229  0D83                     u1731:	
  3230  0D83  2D8C               	goto	l1532
  3231  0D84                     u1730:	
  3232  0D84                     l1530:	
  3233  0D84  3000               	movlw	0
  3234  0D85  00F3               	movwf	___fladd@b+3
  3235  0D86  3000               	movlw	0
  3236  0D87  00F2               	movwf	___fladd@b+2
  3237  0D88  3000               	movlw	0
  3238  0D89  00F1               	movwf	___fladd@b+1
  3239  0D8A  3000               	movlw	0
  3240  0D8B  00F0               	movwf	___fladd@b
  3241  0D8C                     l1532:	
  3242  0D8C  17F2               	bsf	___fladd@b+2,7
  3243  0D8D                     l1534:	
  3244  0D8D  01F3               	clrf	___fladd@b+3
  3245  0D8E  2D97               	goto	l1538
  3246  0D8F                     l1536:	
  3247  0D8F  3000               	movlw	0
  3248  0D90  00F3               	movwf	___fladd@b+3
  3249  0D91  3000               	movlw	0
  3250  0D92  00F2               	movwf	___fladd@b+2
  3251  0D93  3000               	movlw	0
  3252  0D94  00F1               	movwf	___fladd@b+1
  3253  0D95  3000               	movlw	0
  3254  0D96  00F0               	movwf	___fladd@b
  3255  0D97                     l1538:	
  3256  0D97  0877               	movf	___fladd@a+3,w
  3257  0D98  3980               	andlw	128
  3258  0D99  00A0               	movwf	??___fladd
  3259  0D9A  0820               	movf	??___fladd,w
  3260  0D9B  00F9               	movwf	___fladd@aexp
  3261  0D9C                     l1540:	
  3262  0D9C  0879               	movf	___fladd@aexp,w
  3263  0D9D  0678               	xorwf	___fladd@signs,w
  3264  0D9E  1903               	skipnz
  3265  0D9F  2DA1               	goto	u1741
  3266  0DA0  2DA2               	goto	u1740
  3267  0DA1                     u1741:	
  3268  0DA1  2DA3               	goto	l1544
  3269  0DA2                     u1740:	
  3270  0DA2                     l1542:	
  3271  0DA2  1778               	bsf	___fladd@signs,6
  3272  0DA3                     l1544:	
  3273  0DA3  0877               	movf	___fladd@a+3,w
  3274  0DA4  00A0               	movwf	??___fladd
  3275  0DA5  0720               	addwf	??___fladd,w
  3276  0DA6  00A1               	movwf	??___fladd+1
  3277  0DA7  0821               	movf	??___fladd+1,w
  3278  0DA8  00F9               	movwf	___fladd@aexp
  3279  0DA9                     l1546:	
  3280  0DA9  1FF6               	btfss	___fladd@a+2,7
  3281  0DAA  2DAC               	goto	u1751
  3282  0DAB  2DAD               	goto	u1750
  3283  0DAC                     u1751:	
  3284  0DAC  2DAE               	goto	l1550
  3285  0DAD                     u1750:	
  3286  0DAD                     l1548:	
  3287  0DAD  1479               	bsf	___fladd@aexp,0
  3288  0DAE                     l1550:	
  3289  0DAE  0879               	movf	___fladd@aexp,w
  3290  0DAF  1903               	btfsc	3,2
  3291  0DB0  2DB2               	goto	u1761
  3292  0DB1  2DB3               	goto	u1760
  3293  0DB2                     u1761:	
  3294  0DB2  2DC3               	goto	l1560
  3295  0DB3                     u1760:	
  3296  0DB3                     l1552:	
  3297  0DB3  0A79               	incf	___fladd@aexp,w
  3298  0DB4  1D03               	btfss	3,2
  3299  0DB5  2DB7               	goto	u1771
  3300  0DB6  2DB8               	goto	u1770
  3301  0DB7                     u1771:	
  3302  0DB7  2DC0               	goto	l1556
  3303  0DB8                     u1770:	
  3304  0DB8                     l1554:	
  3305  0DB8  3000               	movlw	0
  3306  0DB9  00F7               	movwf	___fladd@a+3
  3307  0DBA  3000               	movlw	0
  3308  0DBB  00F6               	movwf	___fladd@a+2
  3309  0DBC  3000               	movlw	0
  3310  0DBD  00F5               	movwf	___fladd@a+1
  3311  0DBE  3000               	movlw	0
  3312  0DBF  00F4               	movwf	___fladd@a
  3313  0DC0                     l1556:	
  3314  0DC0  17F6               	bsf	___fladd@a+2,7
  3315  0DC1                     l1558:	
  3316  0DC1  01F7               	clrf	___fladd@a+3
  3317  0DC2  2DCB               	goto	l510
  3318  0DC3                     l1560:	
  3319  0DC3  3000               	movlw	0
  3320  0DC4  00F7               	movwf	___fladd@a+3
  3321  0DC5  3000               	movlw	0
  3322  0DC6  00F6               	movwf	___fladd@a+2
  3323  0DC7  3000               	movlw	0
  3324  0DC8  00F5               	movwf	___fladd@a+1
  3325  0DC9  3000               	movlw	0
  3326  0DCA  00F4               	movwf	___fladd@a
  3327  0DCB                     l510:	
  3328  0DCB  087A               	movf	___fladd@bexp,w
  3329  0DCC  0279               	subwf	___fladd@aexp,w
  3330  0DCD  1803               	skipnc
  3331  0DCE  2DD0               	goto	u1781
  3332  0DCF  2DD1               	goto	u1780
  3333  0DD0                     u1781:	
  3334  0DD0  2E15               	goto	l1596
  3335  0DD1                     u1780:	
  3336  0DD1                     l1562:	
  3337  0DD1  1F78               	btfss	___fladd@signs,6
  3338  0DD2  2DD4               	goto	u1791
  3339  0DD3  2DD5               	goto	u1790
  3340  0DD4                     u1791:	
  3341  0DD4  2DD9               	goto	l1566
  3342  0DD5                     u1790:	
  3343  0DD5                     l1564:	
  3344  0DD5  3080               	movlw	128
  3345  0DD6  00A0               	movwf	??___fladd
  3346  0DD7  0820               	movf	??___fladd,w
  3347  0DD8  06F8               	xorwf	___fladd@signs,f
  3348  0DD9                     l1566:	
  3349  0DD9  087A               	movf	___fladd@bexp,w
  3350  0DDA  00A0               	movwf	??___fladd
  3351  0DDB  0820               	movf	??___fladd,w
  3352  0DDC  00FB               	movwf	___fladd@grs
  3353  0DDD                     l1568:	
  3354  0DDD  0879               	movf	___fladd@aexp,w
  3355  0DDE  00A0               	movwf	??___fladd
  3356  0DDF  0820               	movf	??___fladd,w
  3357  0DE0  00FA               	movwf	___fladd@bexp
  3358  0DE1                     l1570:	
  3359  0DE1  087B               	movf	___fladd@grs,w
  3360  0DE2  00A0               	movwf	??___fladd
  3361  0DE3  0820               	movf	??___fladd,w
  3362  0DE4  00F9               	movwf	___fladd@aexp
  3363  0DE5                     l1572:	
  3364  0DE5  0870               	movf	___fladd@b,w
  3365  0DE6  00A0               	movwf	??___fladd
  3366  0DE7  0820               	movf	??___fladd,w
  3367  0DE8  00FB               	movwf	___fladd@grs
  3368  0DE9                     l1574:	
  3369  0DE9  0874               	movf	___fladd@a,w
  3370  0DEA  00A0               	movwf	??___fladd
  3371  0DEB  0820               	movf	??___fladd,w
  3372  0DEC  00F0               	movwf	___fladd@b
  3373  0DED                     l1576:	
  3374  0DED  087B               	movf	___fladd@grs,w
  3375  0DEE  00A0               	movwf	??___fladd
  3376  0DEF  0820               	movf	??___fladd,w
  3377  0DF0  00F4               	movwf	___fladd@a
  3378  0DF1                     l1578:	
  3379  0DF1  0871               	movf	___fladd@b+1,w
  3380  0DF2  00A0               	movwf	??___fladd
  3381  0DF3  0820               	movf	??___fladd,w
  3382  0DF4  00FB               	movwf	___fladd@grs
  3383  0DF5                     l1580:	
  3384  0DF5  0875               	movf	___fladd@a+1,w
  3385  0DF6  00A0               	movwf	??___fladd
  3386  0DF7  0820               	movf	??___fladd,w
  3387  0DF8  00F1               	movwf	___fladd@b+1
  3388  0DF9                     l1582:	
  3389  0DF9  087B               	movf	___fladd@grs,w
  3390  0DFA  00A0               	movwf	??___fladd
  3391  0DFB  0820               	movf	??___fladd,w
  3392  0DFC  00F5               	movwf	___fladd@a+1
  3393  0DFD                     l1584:	
  3394  0DFD  0872               	movf	___fladd@b+2,w
  3395  0DFE  00A0               	movwf	??___fladd
  3396  0DFF  0820               	movf	??___fladd,w
  3397  0E00  00FB               	movwf	___fladd@grs
  3398  0E01                     l1586:	
  3399  0E01  0876               	movf	___fladd@a+2,w
  3400  0E02  00A0               	movwf	??___fladd
  3401  0E03  0820               	movf	??___fladd,w
  3402  0E04  00F2               	movwf	___fladd@b+2
  3403  0E05                     l1588:	
  3404  0E05  087B               	movf	___fladd@grs,w
  3405  0E06  00A0               	movwf	??___fladd
  3406  0E07  0820               	movf	??___fladd,w
  3407  0E08  00F6               	movwf	___fladd@a+2
  3408  0E09                     l1590:	
  3409  0E09  0873               	movf	___fladd@b+3,w
  3410  0E0A  00A0               	movwf	??___fladd
  3411  0E0B  0820               	movf	??___fladd,w
  3412  0E0C  00FB               	movwf	___fladd@grs
  3413  0E0D                     l1592:	
  3414  0E0D  0877               	movf	___fladd@a+3,w
  3415  0E0E  00A0               	movwf	??___fladd
  3416  0E0F  0820               	movf	??___fladd,w
  3417  0E10  00F3               	movwf	___fladd@b+3
  3418  0E11                     l1594:	
  3419  0E11  087B               	movf	___fladd@grs,w
  3420  0E12  00A0               	movwf	??___fladd
  3421  0E13  0820               	movf	??___fladd,w
  3422  0E14  00F7               	movwf	___fladd@a+3
  3423  0E15                     l1596:	
  3424  0E15  01FB               	clrf	___fladd@grs
  3425  0E16                     l1598:	
  3426  0E16  0879               	movf	___fladd@aexp,w
  3427  0E17  00A0               	movwf	??___fladd
  3428  0E18  01A1               	clrf	??___fladd+1
  3429  0E19  0821               	movf	??___fladd+1,w
  3430  0E1A  00A3               	movwf	??___fladd+3
  3431  0E1B  087A               	movf	___fladd@bexp,w
  3432  0E1C  0220               	subwf	??___fladd,w
  3433  0E1D  00A2               	movwf	??___fladd+2
  3434  0E1E  1C03               	skipc
  3435  0E1F  03A3               	decf	??___fladd+3,f
  3436  0E20  0823               	movf	??___fladd+3,w
  3437  0E21  3A80               	xorlw	128
  3438  0E22  00FF               	movwf	btemp+1
  3439  0E23  3080               	movlw	128
  3440  0E24  027F               	subwf	btemp+1,w
  3441  0E25  1D03               	skipz
  3442  0E26  2E29               	goto	u1805
  3443  0E27  301A               	movlw	26
  3444  0E28  0222               	subwf	??___fladd+2,w
  3445  0E29                     u1805:	
  3446  0E29  1C03               	skipc
  3447  0E2A  2E2C               	goto	u1801
  3448  0E2B  2E2D               	goto	u1800
  3449  0E2C                     u1801:	
  3450  0E2C  2E6E               	goto	l1614
  3451  0E2D                     u1800:	
  3452  0E2D                     l1600:	
  3453  0E2D  0873               	movf	___fladd@b+3,w
  3454  0E2E  0472               	iorwf	___fladd@b+2,w
  3455  0E2F  0471               	iorwf	___fladd@b+1,w
  3456  0E30  0470               	iorwf	___fladd@b,w
  3457  0E31  1D03               	skipz
  3458  0E32  2E34               	goto	u1811
  3459  0E33  2E36               	goto	u1810
  3460  0E34                     u1811:	
  3461  0E34  3001               	movlw	1
  3462  0E35  2E37               	goto	u1820
  3463  0E36                     u1810:	
  3464  0E36  3000               	movlw	0
  3465  0E37                     u1820:	
  3466  0E37  1283               	bcf	3,5	;RP0=0, select bank0
  3467  0E38  1303               	bcf	3,6	;RP1=0, select bank0
  3468  0E39  00A0               	movwf	??___fladd
  3469  0E3A  0820               	movf	??___fladd,w
  3470  0E3B  00FB               	movwf	___fladd@grs
  3471  0E3C  3000               	movlw	0
  3472  0E3D  00F3               	movwf	___fladd@b+3
  3473  0E3E  3000               	movlw	0
  3474  0E3F  00F2               	movwf	___fladd@b+2
  3475  0E40  3000               	movlw	0
  3476  0E41  00F1               	movwf	___fladd@b+1
  3477  0E42  3000               	movlw	0
  3478  0E43  00F0               	movwf	___fladd@b
  3479  0E44  0879               	movf	___fladd@aexp,w
  3480  0E45  00A0               	movwf	??___fladd
  3481  0E46  0820               	movf	??___fladd,w
  3482  0E47  00FA               	movwf	___fladd@bexp
  3483  0E48  2E74               	goto	l514
  3484  0E49                     l516:	
  3485  0E49  1C7B               	btfss	___fladd@grs,0
  3486  0E4A  2E4C               	goto	u1831
  3487  0E4B  2E4D               	goto	u1830
  3488  0E4C                     u1831:	
  3489  0E4C  2E58               	goto	l1604
  3490  0E4D                     u1830:	
  3491  0E4D                     l1602:	
  3492  0E4D  087B               	movf	___fladd@grs,w
  3493  0E4E  1283               	bcf	3,5	;RP0=0, select bank0
  3494  0E4F  1303               	bcf	3,6	;RP1=0, select bank0
  3495  0E50  00A0               	movwf	??___fladd
  3496  0E51  1003               	clrc
  3497  0E52  0C20               	rrf	??___fladd,w
  3498  0E53  3801               	iorlw	1
  3499  0E54  00A1               	movwf	??___fladd+1
  3500  0E55  0821               	movf	??___fladd+1,w
  3501  0E56  00FB               	movwf	___fladd@grs
  3502  0E57  2E5A               	goto	l1606
  3503  0E58                     l1604:	
  3504  0E58  1003               	clrc
  3505  0E59  0CFB               	rrf	___fladd@grs,f
  3506  0E5A                     l1606:	
  3507  0E5A  1C70               	btfss	___fladd@b,0
  3508  0E5B  2E5D               	goto	u1841
  3509  0E5C  2E5E               	goto	u1840
  3510  0E5D                     u1841:	
  3511  0E5D  2E5F               	goto	l1610
  3512  0E5E                     u1840:	
  3513  0E5E                     l1608:	
  3514  0E5E  17FB               	bsf	___fladd@grs,7
  3515  0E5F                     l1610:	
  3516  0E5F  3001               	movlw	1
  3517  0E60  1283               	bcf	3,5	;RP0=0, select bank0
  3518  0E61  1303               	bcf	3,6	;RP1=0, select bank0
  3519  0E62  00A0               	movwf	??___fladd
  3520  0E63                     u1855:	
  3521  0E63  0D73               	rlf	___fladd@b+3,w
  3522  0E64  0CF3               	rrf	___fladd@b+3,f
  3523  0E65  0CF2               	rrf	___fladd@b+2,f
  3524  0E66  0CF1               	rrf	___fladd@b+1,f
  3525  0E67  0CF0               	rrf	___fladd@b,f
  3526  0E68  0BA0               	decfsz	??___fladd& (0+127),f
  3527  0E69  2E63               	goto	u1855
  3528  0E6A                     l1612:	
  3529  0E6A  3001               	movlw	1
  3530  0E6B  00A0               	movwf	??___fladd
  3531  0E6C  0820               	movf	??___fladd,w
  3532  0E6D  07FA               	addwf	___fladd@bexp,f
  3533  0E6E                     l1614:	
  3534  0E6E  0879               	movf	___fladd@aexp,w
  3535  0E6F  027A               	subwf	___fladd@bexp,w
  3536  0E70  1C03               	skipc
  3537  0E71  2E73               	goto	u1861
  3538  0E72  2E74               	goto	u1860
  3539  0E73                     u1861:	
  3540  0E73  2E49               	goto	l516
  3541  0E74                     u1860:	
  3542  0E74                     l514:	
  3543  0E74  1B78               	btfsc	___fladd@signs,6
  3544  0E75  2E77               	goto	u1871
  3545  0E76  2E78               	goto	u1870
  3546  0E77                     u1871:	
  3547  0E77  2EC7               	goto	l1640
  3548  0E78                     u1870:	
  3549  0E78                     l1616:	
  3550  0E78  087A               	movf	___fladd@bexp,w
  3551  0E79  1D03               	btfss	3,2
  3552  0E7A  2E7C               	goto	u1881
  3553  0E7B  2E7D               	goto	u1880
  3554  0E7C                     u1881:	
  3555  0E7C  2E86               	goto	l1622
  3556  0E7D                     u1880:	
  3557  0E7D                     l1618:	
  3558  0E7D  3000               	movlw	0
  3559  0E7E  00F3               	movwf	?___fladd+3
  3560  0E7F  3000               	movlw	0
  3561  0E80  00F2               	movwf	?___fladd+2
  3562  0E81  3000               	movlw	0
  3563  0E82  00F1               	movwf	?___fladd+1
  3564  0E83  3000               	movlw	0
  3565  0E84  00F0               	movwf	?___fladd
  3566  0E85  2FFF               	goto	l523
  3567  0E86                     l1622:	
  3568  0E86  0874               	movf	___fladd@a,w
  3569  0E87  07F0               	addwf	___fladd@b,f
  3570  0E88  0875               	movf	___fladd@a+1,w
  3571  0E89  1103               	clrz
  3572  0E8A  1803               	skipnc
  3573  0E8B  3E01               	addlw	1
  3574  0E8C  1903               	skipnz
  3575  0E8D  2E8F               	goto	u1891
  3576  0E8E  07F1               	addwf	___fladd@b+1,f
  3577  0E8F                     u1891:	
  3578  0E8F  0876               	movf	___fladd@a+2,w
  3579  0E90  1103               	clrz
  3580  0E91  1803               	skipnc
  3581  0E92  3E01               	addlw	1
  3582  0E93  1903               	skipnz
  3583  0E94  2E96               	goto	u1892
  3584  0E95  07F2               	addwf	___fladd@b+2,f
  3585  0E96                     u1892:	
  3586  0E96  0877               	movf	___fladd@a+3,w
  3587  0E97  1103               	clrz
  3588  0E98  1803               	skipnc
  3589  0E99  3E01               	addlw	1
  3590  0E9A  1903               	skipnz
  3591  0E9B  2E9D               	goto	u1893
  3592  0E9C  07F3               	addwf	___fladd@b+3,f
  3593  0E9D                     u1893:	
  3594  0E9D                     l1624:	
  3595  0E9D  1C73               	btfss	___fladd@b+3,0
  3596  0E9E  2EA0               	goto	u1901
  3597  0E9F  2EA1               	goto	u1900
  3598  0EA0                     u1901:	
  3599  0EA0  2F7F               	goto	l1674
  3600  0EA1                     u1900:	
  3601  0EA1                     l1626:	
  3602  0EA1  1C7B               	btfss	___fladd@grs,0
  3603  0EA2  2EA4               	goto	u1911
  3604  0EA3  2EA5               	goto	u1910
  3605  0EA4                     u1911:	
  3606  0EA4  2EB0               	goto	l1630
  3607  0EA5                     u1910:	
  3608  0EA5                     l1628:	
  3609  0EA5  087B               	movf	___fladd@grs,w
  3610  0EA6  1283               	bcf	3,5	;RP0=0, select bank0
  3611  0EA7  1303               	bcf	3,6	;RP1=0, select bank0
  3612  0EA8  00A0               	movwf	??___fladd
  3613  0EA9  1003               	clrc
  3614  0EAA  0C20               	rrf	??___fladd,w
  3615  0EAB  3801               	iorlw	1
  3616  0EAC  00A1               	movwf	??___fladd+1
  3617  0EAD  0821               	movf	??___fladd+1,w
  3618  0EAE  00FB               	movwf	___fladd@grs
  3619  0EAF  2EB2               	goto	l1632
  3620  0EB0                     l1630:	
  3621  0EB0  1003               	clrc
  3622  0EB1  0CFB               	rrf	___fladd@grs,f
  3623  0EB2                     l1632:	
  3624  0EB2  1C70               	btfss	___fladd@b,0
  3625  0EB3  2EB5               	goto	u1921
  3626  0EB4  2EB6               	goto	u1920
  3627  0EB5                     u1921:	
  3628  0EB5  2EB7               	goto	l1636
  3629  0EB6                     u1920:	
  3630  0EB6                     l1634:	
  3631  0EB6  17FB               	bsf	___fladd@grs,7
  3632  0EB7                     l1636:	
  3633  0EB7  3001               	movlw	1
  3634  0EB8  1283               	bcf	3,5	;RP0=0, select bank0
  3635  0EB9  1303               	bcf	3,6	;RP1=0, select bank0
  3636  0EBA  00A0               	movwf	??___fladd
  3637  0EBB                     u1935:	
  3638  0EBB  0D73               	rlf	___fladd@b+3,w
  3639  0EBC  0CF3               	rrf	___fladd@b+3,f
  3640  0EBD  0CF2               	rrf	___fladd@b+2,f
  3641  0EBE  0CF1               	rrf	___fladd@b+1,f
  3642  0EBF  0CF0               	rrf	___fladd@b,f
  3643  0EC0  0BA0               	decfsz	??___fladd& (0+127),f
  3644  0EC1  2EBB               	goto	u1935
  3645  0EC2                     l1638:	
  3646  0EC2  3001               	movlw	1
  3647  0EC3  00A0               	movwf	??___fladd
  3648  0EC4  0820               	movf	??___fladd,w
  3649  0EC5  07FA               	addwf	___fladd@bexp,f
  3650  0EC6  2F7F               	goto	l1674
  3651  0EC7                     l1640:	
  3652  0EC7  0873               	movf	___fladd@b+3,w
  3653  0EC8  3A80               	xorlw	128
  3654  0EC9  00FF               	movwf	btemp+1
  3655  0ECA  0877               	movf	___fladd@a+3,w
  3656  0ECB  3A80               	xorlw	128
  3657  0ECC  027F               	subwf	btemp+1,w
  3658  0ECD  1D03               	skipz
  3659  0ECE  2ED9               	goto	u1943
  3660  0ECF  0876               	movf	___fladd@a+2,w
  3661  0ED0  0272               	subwf	___fladd@b+2,w
  3662  0ED1  1D03               	skipz
  3663  0ED2  2ED9               	goto	u1943
  3664  0ED3  0875               	movf	___fladd@a+1,w
  3665  0ED4  0271               	subwf	___fladd@b+1,w
  3666  0ED5  1D03               	skipz
  3667  0ED6  2ED9               	goto	u1943
  3668  0ED7  0874               	movf	___fladd@a,w
  3669  0ED8  0270               	subwf	___fladd@b,w
  3670  0ED9                     u1943:	
  3671  0ED9  1803               	skipnc
  3672  0EDA  2EDC               	goto	u1941
  3673  0EDB  2EDD               	goto	u1940
  3674  0EDC                     u1941:	
  3675  0EDC  2F37               	goto	l1650
  3676  0EDD                     u1940:	
  3677  0EDD                     l1642:	
  3678  0EDD  30FF               	movlw	255
  3679  0EDE  1283               	bcf	3,5	;RP0=0, select bank0
  3680  0EDF  1303               	bcf	3,6	;RP1=0, select bank0
  3681  0EE0  00A0               	movwf	??___fladd
  3682  0EE1  30FF               	movlw	255
  3683  0EE2  00A1               	movwf	??___fladd+1
  3684  0EE3  30FF               	movlw	255
  3685  0EE4  00A2               	movwf	??___fladd+2
  3686  0EE5  30FF               	movlw	255
  3687  0EE6  00A3               	movwf	??___fladd+3
  3688  0EE7  0874               	movf	___fladd@a,w
  3689  0EE8  00A4               	movwf	??___fladd+4
  3690  0EE9  0875               	movf	___fladd@a+1,w
  3691  0EEA  00A5               	movwf	??___fladd+5
  3692  0EEB  0876               	movf	___fladd@a+2,w
  3693  0EEC  00A6               	movwf	??___fladd+6
  3694  0EED  0877               	movf	___fladd@a+3,w
  3695  0EEE  00A7               	movwf	??___fladd+7
  3696  0EEF  0870               	movf	___fladd@b,w
  3697  0EF0  02A4               	subwf	??___fladd+4,f
  3698  0EF1  0871               	movf	___fladd@b+1,w
  3699  0EF2  1C03               	skipc
  3700  0EF3  0F71               	incfsz	___fladd@b+1,w
  3701  0EF4  2EF6               	goto	u1951
  3702  0EF5  2EF7               	goto	u1952
  3703  0EF6                     u1951:	
  3704  0EF6  02A5               	subwf	??___fladd+5,f
  3705  0EF7                     u1952:	
  3706  0EF7  0872               	movf	___fladd@b+2,w
  3707  0EF8  1C03               	skipc
  3708  0EF9  0F72               	incfsz	___fladd@b+2,w
  3709  0EFA  2EFC               	goto	u1953
  3710  0EFB  2EFD               	goto	u1954
  3711  0EFC                     u1953:	
  3712  0EFC  02A6               	subwf	??___fladd+6,f
  3713  0EFD                     u1954:	
  3714  0EFD  0873               	movf	___fladd@b+3,w
  3715  0EFE  1C03               	skipc
  3716  0EFF  0F73               	incfsz	___fladd@b+3,w
  3717  0F00  2F02               	goto	u1955
  3718  0F01  2F03               	goto	u1956
  3719  0F02                     u1955:	
  3720  0F02  02A7               	subwf	??___fladd+7,f
  3721  0F03                     u1956:	
  3722  0F03  0824               	movf	??___fladd+4,w
  3723  0F04  07A0               	addwf	??___fladd,f
  3724  0F05  0825               	movf	??___fladd+5,w
  3725  0F06  1803               	skipnc
  3726  0F07  0F25               	incfsz	??___fladd+5,w
  3727  0F08  2F0A               	goto	u1960
  3728  0F09  2F0B               	goto	u1961
  3729  0F0A                     u1960:	
  3730  0F0A  07A1               	addwf	??___fladd+1,f
  3731  0F0B                     u1961:	
  3732  0F0B  0826               	movf	??___fladd+6,w
  3733  0F0C  1803               	skipnc
  3734  0F0D  0F26               	incfsz	??___fladd+6,w
  3735  0F0E  2F10               	goto	u1962
  3736  0F0F  2F11               	goto	u1963
  3737  0F10                     u1962:	
  3738  0F10  07A2               	addwf	??___fladd+2,f
  3739  0F11                     u1963:	
  3740  0F11  0827               	movf	??___fladd+7,w
  3741  0F12  1803               	skipnc
  3742  0F13  0A27               	incf	??___fladd+7,w
  3743  0F14  07A3               	addwf	??___fladd+3,f
  3744  0F15  0823               	movf	??___fladd+3,w
  3745  0F16  00F3               	movwf	___fladd@b+3
  3746  0F17  0822               	movf	??___fladd+2,w
  3747  0F18  00F2               	movwf	___fladd@b+2
  3748  0F19  0821               	movf	??___fladd+1,w
  3749  0F1A  00F1               	movwf	___fladd@b+1
  3750  0F1B  0820               	movf	??___fladd,w
  3751  0F1C  00F0               	movwf	___fladd@b
  3752  0F1D                     l1644:	
  3753  0F1D  3080               	movlw	128
  3754  0F1E  00A0               	movwf	??___fladd
  3755  0F1F  0820               	movf	??___fladd,w
  3756  0F20  06F8               	xorwf	___fladd@signs,f
  3757  0F21  09FB               	comf	___fladd@grs,f
  3758  0F22  0AFB               	incf	___fladd@grs,f
  3759  0F23                     l1646:	
  3760  0F23  087B               	movf	___fladd@grs,w
  3761  0F24  1D03               	btfss	3,2
  3762  0F25  2F27               	goto	u1971
  3763  0F26  2F28               	goto	u1970
  3764  0F27                     u1971:	
  3765  0F27  2F45               	goto	l531
  3766  0F28                     u1970:	
  3767  0F28                     l1648:	
  3768  0F28  3001               	movlw	1
  3769  0F29  07F0               	addwf	___fladd@b,f
  3770  0F2A  3000               	movlw	0
  3771  0F2B  1803               	skipnc
  3772  0F2C  3001               	movlw	1
  3773  0F2D  07F1               	addwf	___fladd@b+1,f
  3774  0F2E  3000               	movlw	0
  3775  0F2F  1803               	skipnc
  3776  0F30  3001               	movlw	1
  3777  0F31  07F2               	addwf	___fladd@b+2,f
  3778  0F32  3000               	movlw	0
  3779  0F33  1803               	skipnc
  3780  0F34  3001               	movlw	1
  3781  0F35  07F3               	addwf	___fladd@b+3,f
  3782  0F36  2F45               	goto	l531
  3783  0F37                     l1650:	
  3784  0F37  0874               	movf	___fladd@a,w
  3785  0F38  02F0               	subwf	___fladd@b,f
  3786  0F39  0875               	movf	___fladd@a+1,w
  3787  0F3A  1C03               	skipc
  3788  0F3B  0F75               	incfsz	___fladd@a+1,w
  3789  0F3C  02F1               	subwf	___fladd@b+1,f
  3790  0F3D  0876               	movf	___fladd@a+2,w
  3791  0F3E  1C03               	skipc
  3792  0F3F  0F76               	incfsz	___fladd@a+2,w
  3793  0F40  02F2               	subwf	___fladd@b+2,f
  3794  0F41  0877               	movf	___fladd@a+3,w
  3795  0F42  1C03               	skipc
  3796  0F43  0F77               	incfsz	___fladd@a+3,w
  3797  0F44  02F3               	subwf	___fladd@b+3,f
  3798  0F45                     l531:	
  3799  0F45  0873               	movf	___fladd@b+3,w
  3800  0F46  0472               	iorwf	___fladd@b+2,w
  3801  0F47  0471               	iorwf	___fladd@b+1,w
  3802  0F48  0470               	iorwf	___fladd@b,w
  3803  0F49  1D03               	skipz
  3804  0F4A  2F4C               	goto	u1981
  3805  0F4B  2F4D               	goto	u1980
  3806  0F4C                     u1981:	
  3807  0F4C  2F7B               	goto	l1672
  3808  0F4D                     u1980:	
  3809  0F4D                     l1652:	
  3810  0F4D  087B               	movf	___fladd@grs,w
  3811  0F4E  1D03               	btfss	3,2
  3812  0F4F  2F51               	goto	u1991
  3813  0F50  2F52               	goto	u1990
  3814  0F51                     u1991:	
  3815  0F51  2F7B               	goto	l1672
  3816  0F52                     u1990:	
  3817  0F52                     l1654:	
  3818  0F52  3000               	movlw	0
  3819  0F53  00F3               	movwf	?___fladd+3
  3820  0F54  3000               	movlw	0
  3821  0F55  00F2               	movwf	?___fladd+2
  3822  0F56  3000               	movlw	0
  3823  0F57  00F1               	movwf	?___fladd+1
  3824  0F58  3000               	movlw	0
  3825  0F59  00F0               	movwf	?___fladd
  3826  0F5A  2FFF               	goto	l523
  3827  0F5B                     l1658:	
  3828  0F5B  3001               	movlw	1
  3829  0F5C  1283               	bcf	3,5	;RP0=0, select bank0
  3830  0F5D  1303               	bcf	3,6	;RP1=0, select bank0
  3831  0F5E  00A0               	movwf	??___fladd
  3832  0F5F                     u2005:	
  3833  0F5F  1003               	clrc
  3834  0F60  0DF0               	rlf	___fladd@b,f
  3835  0F61  0DF1               	rlf	___fladd@b+1,f
  3836  0F62  0DF2               	rlf	___fladd@b+2,f
  3837  0F63  0DF3               	rlf	___fladd@b+3,f
  3838  0F64  0BA0               	decfsz	??___fladd,f
  3839  0F65  2F5F               	goto	u2005
  3840  0F66                     l1660:	
  3841  0F66  1FFB               	btfss	___fladd@grs,7
  3842  0F67  2F69               	goto	u2011
  3843  0F68  2F6A               	goto	u2010
  3844  0F69                     u2011:	
  3845  0F69  2F6B               	goto	l535
  3846  0F6A                     u2010:	
  3847  0F6A                     l1662:	
  3848  0F6A  1470               	bsf	___fladd@b,0
  3849  0F6B                     l535:	
  3850  0F6B  1C7B               	btfss	___fladd@grs,0
  3851  0F6C  2F6E               	goto	u2021
  3852  0F6D  2F6F               	goto	u2020
  3853  0F6E                     u2021:	
  3854  0F6E  2F72               	goto	l1666
  3855  0F6F                     u2020:	
  3856  0F6F                     l1664:	
  3857  0F6F  1403               	setc
  3858  0F70  0DFB               	rlf	___fladd@grs,f
  3859  0F71  2F74               	goto	l1668
  3860  0F72                     l1666:	
  3861  0F72  1003               	clrc
  3862  0F73  0DFB               	rlf	___fladd@grs,f
  3863  0F74                     l1668:	
  3864  0F74  087A               	movf	___fladd@bexp,w
  3865  0F75  1903               	btfsc	3,2
  3866  0F76  2F78               	goto	u2031
  3867  0F77  2F79               	goto	u2030
  3868  0F78                     u2031:	
  3869  0F78  2F7B               	goto	l1672
  3870  0F79                     u2030:	
  3871  0F79                     l1670:	
  3872  0F79  3001               	movlw	1
  3873  0F7A  02FA               	subwf	___fladd@bexp,f
  3874  0F7B                     l1672:	
  3875  0F7B  1FF2               	btfss	___fladd@b+2,7
  3876  0F7C  2F7E               	goto	u2041
  3877  0F7D  2F7F               	goto	u2040
  3878  0F7E                     u2041:	
  3879  0F7E  2F5B               	goto	l1658
  3880  0F7F                     u2040:	
  3881  0F7F                     l1674:	
  3882  0F7F  01F9               	clrf	___fladd@aexp
  3883  0F80                     l1676:	
  3884  0F80  1FFB               	btfss	___fladd@grs,7
  3885  0F81  2F83               	goto	u2051
  3886  0F82  2F84               	goto	u2050
  3887  0F83                     u2051:	
  3888  0F83  2F92               	goto	l1684
  3889  0F84                     u2050:	
  3890  0F84                     l1678:	
  3891  0F84  087B               	movf	___fladd@grs,w
  3892  0F85  397F               	andlw	127
  3893  0F86  1903               	btfsc	3,2
  3894  0F87  2F89               	goto	u2061
  3895  0F88  2F8A               	goto	u2060
  3896  0F89                     u2061:	
  3897  0F89  2F8D               	goto	l541
  3898  0F8A                     u2060:	
  3899  0F8A                     l1680:	
  3900  0F8A  01F9               	clrf	___fladd@aexp
  3901  0F8B  0AF9               	incf	___fladd@aexp,f
  3902  0F8C  2F92               	goto	l1684
  3903  0F8D                     l541:	
  3904  0F8D  1C70               	btfss	___fladd@b,0
  3905  0F8E  2F90               	goto	u2071
  3906  0F8F  2F91               	goto	u2070
  3907  0F90                     u2071:	
  3908  0F90  2F92               	goto	l1684
  3909  0F91                     u2070:	
  3910  0F91  2F8A               	goto	l1680
  3911  0F92                     l1684:	
  3912  0F92  0879               	movf	___fladd@aexp,w
  3913  0F93  1903               	btfsc	3,2
  3914  0F94  2F96               	goto	u2081
  3915  0F95  2F97               	goto	u2080
  3916  0F96                     u2081:	
  3917  0F96  2FCD               	goto	l544
  3918  0F97                     u2080:	
  3919  0F97                     l1686:	
  3920  0F97  3001               	movlw	1
  3921  0F98  07F0               	addwf	___fladd@b,f
  3922  0F99  3000               	movlw	0
  3923  0F9A  1803               	skipnc
  3924  0F9B  3001               	movlw	1
  3925  0F9C  07F1               	addwf	___fladd@b+1,f
  3926  0F9D  3000               	movlw	0
  3927  0F9E  1803               	skipnc
  3928  0F9F  3001               	movlw	1
  3929  0FA0  07F2               	addwf	___fladd@b+2,f
  3930  0FA1  3000               	movlw	0
  3931  0FA2  1803               	skipnc
  3932  0FA3  3001               	movlw	1
  3933  0FA4  07F3               	addwf	___fladd@b+3,f
  3934  0FA5                     l1688:	
  3935  0FA5  1C73               	btfss	___fladd@b+3,0
  3936  0FA6  2FA8               	goto	u2091
  3937  0FA7  2FA9               	goto	u2090
  3938  0FA8                     u2091:	
  3939  0FA8  2FCD               	goto	l544
  3940  0FA9                     u2090:	
  3941  0FA9                     l1690:	
  3942  0FA9  0870               	movf	___fladd@b,w
  3943  0FAA  1283               	bcf	3,5	;RP0=0, select bank0
  3944  0FAB  1303               	bcf	3,6	;RP1=0, select bank0
  3945  0FAC  00A0               	movwf	??___fladd
  3946  0FAD  0871               	movf	___fladd@b+1,w
  3947  0FAE  00A1               	movwf	??___fladd+1
  3948  0FAF  0872               	movf	___fladd@b+2,w
  3949  0FB0  00A2               	movwf	??___fladd+2
  3950  0FB1  0873               	movf	___fladd@b+3,w
  3951  0FB2  00A3               	movwf	??___fladd+3
  3952  0FB3  3001               	movlw	1
  3953  0FB4  00A4               	movwf	??___fladd+4
  3954  0FB5                     u2105:	
  3955  0FB5  0D23               	rlf	??___fladd+3,w
  3956  0FB6  0CA3               	rrf	??___fladd+3,f
  3957  0FB7  0CA2               	rrf	??___fladd+2,f
  3958  0FB8  0CA1               	rrf	??___fladd+1,f
  3959  0FB9  0CA0               	rrf	??___fladd,f
  3960  0FBA                     u2100:	
  3961  0FBA  0BA4               	decfsz	??___fladd+4,f
  3962  0FBB  2FB5               	goto	u2105
  3963  0FBC  0823               	movf	??___fladd+3,w
  3964  0FBD  00F3               	movwf	___fladd@b+3
  3965  0FBE  0822               	movf	??___fladd+2,w
  3966  0FBF  00F2               	movwf	___fladd@b+2
  3967  0FC0  0821               	movf	??___fladd+1,w
  3968  0FC1  00F1               	movwf	___fladd@b+1
  3969  0FC2  0820               	movf	??___fladd,w
  3970  0FC3  00F0               	movwf	___fladd@b
  3971  0FC4  0A7A               	incf	___fladd@bexp,w
  3972  0FC5  1903               	btfsc	3,2
  3973  0FC6  2FC8               	goto	u2111
  3974  0FC7  2FC9               	goto	u2110
  3975  0FC8                     u2111:	
  3976  0FC8  2FCD               	goto	l544
  3977  0FC9                     u2110:	
  3978  0FC9                     l1692:	
  3979  0FC9  3001               	movlw	1
  3980  0FCA  00A0               	movwf	??___fladd
  3981  0FCB  0820               	movf	??___fladd,w
  3982  0FCC  07FA               	addwf	___fladd@bexp,f
  3983  0FCD                     l544:	
  3984  0FCD  0A7A               	incf	___fladd@bexp,w
  3985  0FCE  1903               	btfsc	3,2
  3986  0FCF  2FD1               	goto	u2121
  3987  0FD0  2FD2               	goto	u2120
  3988  0FD1                     u2121:	
  3989  0FD1  2FD7               	goto	l1696
  3990  0FD2                     u2120:	
  3991  0FD2                     l1694:	
  3992  0FD2  087A               	movf	___fladd@bexp,w
  3993  0FD3  1D03               	btfss	3,2
  3994  0FD4  2FD6               	goto	u2131
  3995  0FD5  2FD7               	goto	u2130
  3996  0FD6                     u2131:	
  3997  0FD6  2FE5               	goto	l1702
  3998  0FD7                     u2130:	
  3999  0FD7                     l1696:	
  4000  0FD7  3000               	movlw	0
  4001  0FD8  00F3               	movwf	___fladd@b+3
  4002  0FD9  3000               	movlw	0
  4003  0FDA  00F2               	movwf	___fladd@b+2
  4004  0FDB  3000               	movlw	0
  4005  0FDC  00F1               	movwf	___fladd@b+1
  4006  0FDD  3000               	movlw	0
  4007  0FDE  00F0               	movwf	___fladd@b
  4008  0FDF                     l1698:	
  4009  0FDF  087A               	movf	___fladd@bexp,w
  4010  0FE0  1D03               	btfss	3,2
  4011  0FE1  2FE3               	goto	u2141
  4012  0FE2  2FE4               	goto	u2140
  4013  0FE3                     u2141:	
  4014  0FE3  2FE5               	goto	l1702
  4015  0FE4                     u2140:	
  4016  0FE4                     l1700:	
  4017  0FE4  01F8               	clrf	___fladd@signs
  4018  0FE5                     l1702:	
  4019  0FE5  1C7A               	btfss	___fladd@bexp,0
  4020  0FE6  2FE8               	goto	u2151
  4021  0FE7  2FE9               	goto	u2150
  4022  0FE8                     u2151:	
  4023  0FE8  2FEB               	goto	l1706
  4024  0FE9                     u2150:	
  4025  0FE9                     l1704:	
  4026  0FE9  17F2               	bsf	___fladd@b+2,7
  4027  0FEA  2FF1               	goto	l552
  4028  0FEB                     l1706:	
  4029  0FEB  307F               	movlw	127
  4030  0FEC  1283               	bcf	3,5	;RP0=0, select bank0
  4031  0FED  1303               	bcf	3,6	;RP1=0, select bank0
  4032  0FEE  00A0               	movwf	??___fladd
  4033  0FEF  0820               	movf	??___fladd,w
  4034  0FF0  05F2               	andwf	___fladd@b+2,f
  4035  0FF1                     l552:	
  4036  0FF1  087A               	movf	___fladd@bexp,w
  4037  0FF2  1283               	bcf	3,5	;RP0=0, select bank0
  4038  0FF3  1303               	bcf	3,6	;RP1=0, select bank0
  4039  0FF4  00A0               	movwf	??___fladd
  4040  0FF5  1003               	clrc
  4041  0FF6  0C20               	rrf	??___fladd,w
  4042  0FF7  00A1               	movwf	??___fladd+1
  4043  0FF8  0821               	movf	??___fladd+1,w
  4044  0FF9  00F3               	movwf	___fladd@b+3
  4045  0FFA                     l1708:	
  4046  0FFA  1FF8               	btfss	___fladd@signs,7
  4047  0FFB  2FFD               	goto	u2161
  4048  0FFC  2FFE               	goto	u2160
  4049  0FFD                     u2161:	
  4050  0FFD  2FFF               	goto	l553
  4051  0FFE                     u2160:	
  4052  0FFE                     l1710:	
  4053  0FFE  17F3               	bsf	___fladd@b+3,7
  4054  0FFF                     l553:	
  4055  0FFF                     l523:	
  4056  0FFF  0008               	return
  4057  1000                     __end_of___fladd:	
  4058                           
  4059                           	psect	text14
  4060  0A47                     __ptext14:	
  4061 ;; *************** function ___flneg *****************
  4062 ;; Defined at:
  4063 ;;		line 15 in file "C:\Program Files (x86)\Microchip\xc8\v2.10\pic\sources\c90\common\flneg.c"
  4064 ;; Parameters:    Size  Location     Type
  4065 ;;  f1              4    0[COMMON] unsigned char 
  4066 ;; Auto vars:     Size  Location     Type
  4067 ;;		None
  4068 ;; Return value:  Size  Location     Type
  4069 ;;                  4    0[COMMON] unsigned char 
  4070 ;; Registers used:
  4071 ;;		wreg
  4072 ;; Tracked objects:
  4073 ;;		On entry : 0/0
  4074 ;;		On exit  : 0/0
  4075 ;;		Unchanged: 0/0
  4076 ;; Data sizes:     COMMON   BANK0   BANK1   BANK3   BANK2
  4077 ;;      Params:         4       0       0       0       0
  4078 ;;      Locals:         0       0       0       0       0
  4079 ;;      Temps:          0       0       0       0       0
  4080 ;;      Totals:         4       0       0       0       0
  4081 ;;Total ram usage:        4 bytes
  4082 ;; Hardware stack levels used:    1
  4083 ;; This function calls:
  4084 ;;		Nothing
  4085 ;; This function is called by:
  4086 ;;		_ftoa
  4087 ;; This function uses a non-reentrant model
  4088 ;;
  4089                           
  4090                           
  4091                           ;psect for function ___flneg
  4092  0A47                     ___flneg:	
  4093  0A47                     l1844:	
  4094                           ;incstack = 0
  4095                           ; Regs used in ___flneg: [wreg]
  4096                           
  4097  0A47  0873               	movf	___flneg@f1+3,w
  4098  0A48  0472               	iorwf	___flneg@f1+2,w
  4099  0A49  0471               	iorwf	___flneg@f1+1,w
  4100  0A4A  0470               	iorwf	___flneg@f1,w
  4101  0A4B  1903               	skipnz
  4102  0A4C  2A4E               	goto	u2621
  4103  0A4D  2A4F               	goto	u2620
  4104  0A4E                     u2621:	
  4105  0A4E  2A51               	goto	l1848
  4106  0A4F                     u2620:	
  4107  0A4F                     l1846:	
  4108  0A4F  3080               	movlw	128
  4109  0A50  06F3               	xorwf	___flneg@f1+3,f
  4110  0A51                     l1848:	
  4111  0A51                     l399:	
  4112  0A51  0008               	return
  4113  0A52                     __end_of___flneg:	
  4114                           
  4115                           	psect	text15
  4116  0498                     __ptext15:	
  4117 ;; *************** function ___flmul *****************
  4118 ;; Defined at:
  4119 ;;		line 8 in file "C:\Program Files (x86)\Microchip\xc8\v2.10\pic\sources\c90\common\sprcmul.c"
  4120 ;; Parameters:    Size  Location     Type
  4121 ;;  b               4    0[BANK0 ] unsigned char 
  4122 ;;  a               4    4[BANK0 ] unsigned char 
  4123 ;; Auto vars:     Size  Location     Type
  4124 ;;  prod            4   15[BANK0 ] struct .
  4125 ;;  grs             4    9[BANK0 ] unsigned long 
  4126 ;;  temp            2   19[BANK0 ] struct .
  4127 ;;  bexp            1   14[BANK0 ] unsigned char 
  4128 ;;  aexp            1   13[BANK0 ] unsigned char 
  4129 ;;  sign            1    8[BANK0 ] unsigned char 
  4130 ;; Return value:  Size  Location     Type
  4131 ;;                  4    0[BANK0 ] unsigned char 
  4132 ;; Registers used:
  4133 ;;		wreg, status,2, status,0, btemp+1, pclath, cstack
  4134 ;; Tracked objects:
  4135 ;;		On entry : 0/0
  4136 ;;		On exit  : 0/0
  4137 ;;		Unchanged: 0/0
  4138 ;; Data sizes:     COMMON   BANK0   BANK1   BANK3   BANK2
  4139 ;;      Params:         0       8       0       0       0
  4140 ;;      Locals:         0      13       0       0       0
  4141 ;;      Temps:          5       0       0       0       0
  4142 ;;      Totals:         5      21       0       0       0
  4143 ;;Total ram usage:       26 bytes
  4144 ;; Hardware stack levels used:    1
  4145 ;; Hardware stack levels required when called:    1
  4146 ;; This function calls:
  4147 ;;		__Umul8_16
  4148 ;; This function is called by:
  4149 ;;		_ftoa
  4150 ;; This function uses a non-reentrant model
  4151 ;;
  4152                           
  4153                           
  4154                           ;psect for function ___flmul
  4155  0498                     ___flmul:	
  4156  0498                     l1894:	
  4157                           ;incstack = 0
  4158                           ; Regs used in ___flmul: [wreg+status,2+status,0+btemp+1+pclath+cstack]
  4159                           
  4160  0498  1283               	bcf	3,5	;RP0=0, select bank0
  4161  0499  1303               	bcf	3,6	;RP1=0, select bank0
  4162  049A  0823               	movf	___flmul@b+3,w
  4163  049B  3980               	andlw	128
  4164  049C  00F9               	movwf	??___flmul
  4165  049D  0879               	movf	??___flmul,w
  4166  049E  00A8               	movwf	___flmul@sign
  4167  049F                     l1896:	
  4168  049F  0823               	movf	___flmul@b+3,w
  4169  04A0  00F9               	movwf	??___flmul
  4170  04A1  0779               	addwf	??___flmul,w
  4171  04A2  00FA               	movwf	??___flmul+1
  4172  04A3  087A               	movf	??___flmul+1,w
  4173  04A4  00AE               	movwf	___flmul@bexp
  4174  04A5                     l1898:	
  4175  04A5  1FA2               	btfss	___flmul@b+2,7
  4176  04A6  2CA8               	goto	u2731
  4177  04A7  2CA9               	goto	u2730
  4178  04A8                     u2731:	
  4179  04A8  2CAA               	goto	l1902
  4180  04A9                     u2730:	
  4181  04A9                     l1900:	
  4182  04A9  142E               	bsf	___flmul@bexp,0
  4183  04AA                     l1902:	
  4184  04AA  082E               	movf	___flmul@bexp,w
  4185  04AB  1903               	btfsc	3,2
  4186  04AC  2CAE               	goto	u2741
  4187  04AD  2CAF               	goto	u2740
  4188  04AE                     u2741:	
  4189  04AE  2CBE               	goto	l1910
  4190  04AF                     u2740:	
  4191  04AF                     l1904:	
  4192  04AF  0A2E               	incf	___flmul@bexp,w
  4193  04B0  1D03               	btfss	3,2
  4194  04B1  2CB3               	goto	u2751
  4195  04B2  2CB4               	goto	u2750
  4196  04B3                     u2751:	
  4197  04B3  2CBC               	goto	l1908
  4198  04B4                     u2750:	
  4199  04B4                     l1906:	
  4200  04B4  3000               	movlw	0
  4201  04B5  00A3               	movwf	___flmul@b+3
  4202  04B6  3000               	movlw	0
  4203  04B7  00A2               	movwf	___flmul@b+2
  4204  04B8  3000               	movlw	0
  4205  04B9  00A1               	movwf	___flmul@b+1
  4206  04BA  3000               	movlw	0
  4207  04BB  00A0               	movwf	___flmul@b
  4208  04BC                     l1908:	
  4209  04BC  17A2               	bsf	___flmul@b+2,7
  4210  04BD  2CC6               	goto	l1912
  4211  04BE                     l1910:	
  4212  04BE  3000               	movlw	0
  4213  04BF  00A3               	movwf	___flmul@b+3
  4214  04C0  3000               	movlw	0
  4215  04C1  00A2               	movwf	___flmul@b+2
  4216  04C2  3000               	movlw	0
  4217  04C3  00A1               	movwf	___flmul@b+1
  4218  04C4  3000               	movlw	0
  4219  04C5  00A0               	movwf	___flmul@b
  4220  04C6                     l1912:	
  4221  04C6  0827               	movf	___flmul@a+3,w
  4222  04C7  3980               	andlw	128
  4223  04C8  00F9               	movwf	??___flmul
  4224  04C9  0879               	movf	??___flmul,w
  4225  04CA  06A8               	xorwf	___flmul@sign,f
  4226  04CB                     l1914:	
  4227  04CB  0827               	movf	___flmul@a+3,w
  4228  04CC  00F9               	movwf	??___flmul
  4229  04CD  0779               	addwf	??___flmul,w
  4230  04CE  00FA               	movwf	??___flmul+1
  4231  04CF  087A               	movf	??___flmul+1,w
  4232  04D0  00AD               	movwf	___flmul@aexp
  4233  04D1                     l1916:	
  4234  04D1  1FA6               	btfss	___flmul@a+2,7
  4235  04D2  2CD4               	goto	u2761
  4236  04D3  2CD5               	goto	u2760
  4237  04D4                     u2761:	
  4238  04D4  2CD6               	goto	l1920
  4239  04D5                     u2760:	
  4240  04D5                     l1918:	
  4241  04D5  142D               	bsf	___flmul@aexp,0
  4242  04D6                     l1920:	
  4243  04D6  082D               	movf	___flmul@aexp,w
  4244  04D7  1903               	btfsc	3,2
  4245  04D8  2CDA               	goto	u2771
  4246  04D9  2CDB               	goto	u2770
  4247  04DA                     u2771:	
  4248  04DA  2CEA               	goto	l1928
  4249  04DB                     u2770:	
  4250  04DB                     l1922:	
  4251  04DB  0A2D               	incf	___flmul@aexp,w
  4252  04DC  1D03               	btfss	3,2
  4253  04DD  2CDF               	goto	u2781
  4254  04DE  2CE0               	goto	u2780
  4255  04DF                     u2781:	
  4256  04DF  2CE8               	goto	l1926
  4257  04E0                     u2780:	
  4258  04E0                     l1924:	
  4259  04E0  3000               	movlw	0
  4260  04E1  00A7               	movwf	___flmul@a+3
  4261  04E2  3000               	movlw	0
  4262  04E3  00A6               	movwf	___flmul@a+2
  4263  04E4  3000               	movlw	0
  4264  04E5  00A5               	movwf	___flmul@a+1
  4265  04E6  3000               	movlw	0
  4266  04E7  00A4               	movwf	___flmul@a
  4267  04E8                     l1926:	
  4268  04E8  17A6               	bsf	___flmul@a+2,7
  4269  04E9  2CF2               	goto	l1930
  4270  04EA                     l1928:	
  4271  04EA  3000               	movlw	0
  4272  04EB  00A7               	movwf	___flmul@a+3
  4273  04EC  3000               	movlw	0
  4274  04ED  00A6               	movwf	___flmul@a+2
  4275  04EE  3000               	movlw	0
  4276  04EF  00A5               	movwf	___flmul@a+1
  4277  04F0  3000               	movlw	0
  4278  04F1  00A4               	movwf	___flmul@a
  4279  04F2                     l1930:	
  4280  04F2  082D               	movf	___flmul@aexp,w
  4281  04F3  1903               	btfsc	3,2
  4282  04F4  2CF6               	goto	u2791
  4283  04F5  2CF7               	goto	u2790
  4284  04F6                     u2791:	
  4285  04F6  2CFC               	goto	l1934
  4286  04F7                     u2790:	
  4287  04F7                     l1932:	
  4288  04F7  082E               	movf	___flmul@bexp,w
  4289  04F8  1D03               	btfss	3,2
  4290  04F9  2CFB               	goto	u2801
  4291  04FA  2CFC               	goto	u2800
  4292  04FB                     u2801:	
  4293  04FB  2D05               	goto	l1938
  4294  04FC                     u2800:	
  4295  04FC                     l1934:	
  4296  04FC  3000               	movlw	0
  4297  04FD  00A3               	movwf	?___flmul+3
  4298  04FE  3000               	movlw	0
  4299  04FF  00A2               	movwf	?___flmul+2
  4300  0500  3000               	movlw	0
  4301  0501  00A1               	movwf	?___flmul+1
  4302  0502  3000               	movlw	0
  4303  0503  00A0               	movwf	?___flmul
  4304  0504  2FF8               	goto	l606
  4305  0505                     l1938:	
  4306  0505  0820               	movf	___flmul@b,w
  4307  0506  00F9               	movwf	??___flmul
  4308  0507  0879               	movf	??___flmul,w
  4309  0508  00F0               	movwf	__Umul8_16@multiplicand
  4310  0509  0826               	movf	___flmul@a+2,w
  4311  050A  120A  158A  2301  120A  118A  	fcall	__Umul8_16
  4312  050F  0871               	movf	?__Umul8_16+1,w
  4313  0510  1283               	bcf	3,5	;RP0=0, select bank0
  4314  0511  1303               	bcf	3,6	;RP1=0, select bank0
  4315  0512  00B4               	movwf	___flmul@temp+1
  4316  0513  0870               	movf	?__Umul8_16,w
  4317  0514  00B3               	movwf	___flmul@temp
  4318  0515                     l1940:	
  4319  0515  0833               	movf	___flmul@temp,w
  4320  0516  00F9               	movwf	??___flmul
  4321  0517  01FA               	clrf	??___flmul+1
  4322  0518  01FB               	clrf	??___flmul+2
  4323  0519  01FC               	clrf	??___flmul+3
  4324  051A  087C               	movf	??___flmul+3,w
  4325  051B  00AC               	movwf	___flmul@grs+3
  4326  051C  087B               	movf	??___flmul+2,w
  4327  051D  00AB               	movwf	___flmul@grs+2
  4328  051E  087A               	movf	??___flmul+1,w
  4329  051F  00AA               	movwf	___flmul@grs+1
  4330  0520  0879               	movf	??___flmul,w
  4331  0521  00A9               	movwf	___flmul@grs
  4332  0522                     l1942:	
  4333  0522  0834               	movf	___flmul@temp+1,w
  4334  0523  00F9               	movwf	??___flmul
  4335  0524  01FA               	clrf	??___flmul+1
  4336  0525  01FB               	clrf	??___flmul+2
  4337  0526  01FC               	clrf	??___flmul+3
  4338  0527  087C               	movf	??___flmul+3,w
  4339  0528  00B2               	movwf	___flmul@prod+3
  4340  0529  087B               	movf	??___flmul+2,w
  4341  052A  00B1               	movwf	___flmul@prod+2
  4342  052B  087A               	movf	??___flmul+1,w
  4343  052C  00B0               	movwf	___flmul@prod+1
  4344  052D  0879               	movf	??___flmul,w
  4345  052E  00AF               	movwf	___flmul@prod
  4346  052F  0821               	movf	___flmul@b+1,w
  4347  0530  00F9               	movwf	??___flmul
  4348  0531  0879               	movf	??___flmul,w
  4349  0532  00F0               	movwf	__Umul8_16@multiplicand
  4350  0533  0825               	movf	___flmul@a+1,w
  4351  0534  120A  158A  2301  120A  118A  	fcall	__Umul8_16
  4352  0539  0871               	movf	?__Umul8_16+1,w
  4353  053A  1283               	bcf	3,5	;RP0=0, select bank0
  4354  053B  1303               	bcf	3,6	;RP1=0, select bank0
  4355  053C  00B4               	movwf	___flmul@temp+1
  4356  053D  0870               	movf	?__Umul8_16,w
  4357  053E  00B3               	movwf	___flmul@temp
  4358  053F                     l1944:	
  4359  053F  0833               	movf	___flmul@temp,w
  4360  0540  00F9               	movwf	??___flmul
  4361  0541  01FA               	clrf	??___flmul+1
  4362  0542  01FB               	clrf	??___flmul+2
  4363  0543  01FC               	clrf	??___flmul+3
  4364  0544  0879               	movf	??___flmul,w
  4365  0545  07A9               	addwf	___flmul@grs,f
  4366  0546  087A               	movf	??___flmul+1,w
  4367  0547  1103               	clrz
  4368  0548  1803               	skipnc
  4369  0549  3E01               	addlw	1
  4370  054A  1903               	skipnz
  4371  054B  2D4D               	goto	u2811
  4372  054C  07AA               	addwf	___flmul@grs+1,f
  4373  054D                     u2811:	
  4374  054D  087B               	movf	??___flmul+2,w
  4375  054E  1103               	clrz
  4376  054F  1803               	skipnc
  4377  0550  3E01               	addlw	1
  4378  0551  1903               	skipnz
  4379  0552  2D54               	goto	u2812
  4380  0553  07AB               	addwf	___flmul@grs+2,f
  4381  0554                     u2812:	
  4382  0554  087C               	movf	??___flmul+3,w
  4383  0555  1103               	clrz
  4384  0556  1803               	skipnc
  4385  0557  3E01               	addlw	1
  4386  0558  1903               	skipnz
  4387  0559  2D5B               	goto	u2813
  4388  055A  07AC               	addwf	___flmul@grs+3,f
  4389  055B                     u2813:	
  4390  055B                     l1946:	
  4391  055B  0834               	movf	___flmul@temp+1,w
  4392  055C  00F9               	movwf	??___flmul
  4393  055D  01FA               	clrf	??___flmul+1
  4394  055E  01FB               	clrf	??___flmul+2
  4395  055F  01FC               	clrf	??___flmul+3
  4396  0560  0879               	movf	??___flmul,w
  4397  0561  07AF               	addwf	___flmul@prod,f
  4398  0562  087A               	movf	??___flmul+1,w
  4399  0563  1103               	clrz
  4400  0564  1803               	skipnc
  4401  0565  3E01               	addlw	1
  4402  0566  1903               	skipnz
  4403  0567  2D69               	goto	u2821
  4404  0568  07B0               	addwf	___flmul@prod+1,f
  4405  0569                     u2821:	
  4406  0569  087B               	movf	??___flmul+2,w
  4407  056A  1103               	clrz
  4408  056B  1803               	skipnc
  4409  056C  3E01               	addlw	1
  4410  056D  1903               	skipnz
  4411  056E  2D70               	goto	u2822
  4412  056F  07B1               	addwf	___flmul@prod+2,f
  4413  0570                     u2822:	
  4414  0570  087C               	movf	??___flmul+3,w
  4415  0571  1103               	clrz
  4416  0572  1803               	skipnc
  4417  0573  3E01               	addlw	1
  4418  0574  1903               	skipnz
  4419  0575  2D77               	goto	u2823
  4420  0576  07B2               	addwf	___flmul@prod+3,f
  4421  0577                     u2823:	
  4422  0577  0822               	movf	___flmul@b+2,w
  4423  0578  00F9               	movwf	??___flmul
  4424  0579  0879               	movf	??___flmul,w
  4425  057A  00F0               	movwf	__Umul8_16@multiplicand
  4426  057B  0824               	movf	___flmul@a,w
  4427  057C  120A  158A  2301  120A  118A  	fcall	__Umul8_16
  4428  0581  0871               	movf	?__Umul8_16+1,w
  4429  0582  1283               	bcf	3,5	;RP0=0, select bank0
  4430  0583  1303               	bcf	3,6	;RP1=0, select bank0
  4431  0584  00B4               	movwf	___flmul@temp+1
  4432  0585  0870               	movf	?__Umul8_16,w
  4433  0586  00B3               	movwf	___flmul@temp
  4434  0587                     l1948:	
  4435  0587  0833               	movf	___flmul@temp,w
  4436  0588  00F9               	movwf	??___flmul
  4437  0589  01FA               	clrf	??___flmul+1
  4438  058A  01FB               	clrf	??___flmul+2
  4439  058B  01FC               	clrf	??___flmul+3
  4440  058C  0879               	movf	??___flmul,w
  4441  058D  07A9               	addwf	___flmul@grs,f
  4442  058E  087A               	movf	??___flmul+1,w
  4443  058F  1103               	clrz
  4444  0590  1803               	skipnc
  4445  0591  3E01               	addlw	1
  4446  0592  1903               	skipnz
  4447  0593  2D95               	goto	u2831
  4448  0594  07AA               	addwf	___flmul@grs+1,f
  4449  0595                     u2831:	
  4450  0595  087B               	movf	??___flmul+2,w
  4451  0596  1103               	clrz
  4452  0597  1803               	skipnc
  4453  0598  3E01               	addlw	1
  4454  0599  1903               	skipnz
  4455  059A  2D9C               	goto	u2832
  4456  059B  07AB               	addwf	___flmul@grs+2,f
  4457  059C                     u2832:	
  4458  059C  087C               	movf	??___flmul+3,w
  4459  059D  1103               	clrz
  4460  059E  1803               	skipnc
  4461  059F  3E01               	addlw	1
  4462  05A0  1903               	skipnz
  4463  05A1  2DA3               	goto	u2833
  4464  05A2  07AC               	addwf	___flmul@grs+3,f
  4465  05A3                     u2833:	
  4466  05A3                     l1950:	
  4467  05A3  0834               	movf	___flmul@temp+1,w
  4468  05A4  00F9               	movwf	??___flmul
  4469  05A5  01FA               	clrf	??___flmul+1
  4470  05A6  01FB               	clrf	??___flmul+2
  4471  05A7  01FC               	clrf	??___flmul+3
  4472  05A8  0879               	movf	??___flmul,w
  4473  05A9  07AF               	addwf	___flmul@prod,f
  4474  05AA  087A               	movf	??___flmul+1,w
  4475  05AB  1103               	clrz
  4476  05AC  1803               	skipnc
  4477  05AD  3E01               	addlw	1
  4478  05AE  1903               	skipnz
  4479  05AF  2DB1               	goto	u2841
  4480  05B0  07B0               	addwf	___flmul@prod+1,f
  4481  05B1                     u2841:	
  4482  05B1  087B               	movf	??___flmul+2,w
  4483  05B2  1103               	clrz
  4484  05B3  1803               	skipnc
  4485  05B4  3E01               	addlw	1
  4486  05B5  1903               	skipnz
  4487  05B6  2DB8               	goto	u2842
  4488  05B7  07B1               	addwf	___flmul@prod+2,f
  4489  05B8                     u2842:	
  4490  05B8  087C               	movf	??___flmul+3,w
  4491  05B9  1103               	clrz
  4492  05BA  1803               	skipnc
  4493  05BB  3E01               	addlw	1
  4494  05BC  1903               	skipnz
  4495  05BD  2DBF               	goto	u2843
  4496  05BE  07B2               	addwf	___flmul@prod+3,f
  4497  05BF                     u2843:	
  4498  05BF                     l1952:	
  4499  05BF  3008               	movlw	8
  4500  05C0  00F9               	movwf	??___flmul
  4501  05C1                     u2855:	
  4502  05C1  1003               	clrc
  4503  05C2  0DA9               	rlf	___flmul@grs,f
  4504  05C3  0DAA               	rlf	___flmul@grs+1,f
  4505  05C4  0DAB               	rlf	___flmul@grs+2,f
  4506  05C5  0DAC               	rlf	___flmul@grs+3,f
  4507  05C6  0BF9               	decfsz	??___flmul,f
  4508  05C7  2DC1               	goto	u2855
  4509  05C8                     l1954:	
  4510  05C8  0821               	movf	___flmul@b+1,w
  4511  05C9  00F9               	movwf	??___flmul
  4512  05CA  0879               	movf	??___flmul,w
  4513  05CB  00F0               	movwf	__Umul8_16@multiplicand
  4514  05CC  0824               	movf	___flmul@a,w
  4515  05CD  120A  158A  2301  120A  118A  	fcall	__Umul8_16
  4516  05D2  0871               	movf	?__Umul8_16+1,w
  4517  05D3  1283               	bcf	3,5	;RP0=0, select bank0
  4518  05D4  1303               	bcf	3,6	;RP1=0, select bank0
  4519  05D5  00B4               	movwf	___flmul@temp+1
  4520  05D6  0870               	movf	?__Umul8_16,w
  4521  05D7  00B3               	movwf	___flmul@temp
  4522  05D8                     l1956:	
  4523  05D8  0833               	movf	___flmul@temp,w
  4524  05D9  00F9               	movwf	??___flmul
  4525  05DA  0834               	movf	___flmul@temp+1,w
  4526  05DB  00FA               	movwf	??___flmul+1
  4527  05DC  01FB               	clrf	??___flmul+2
  4528  05DD  01FC               	clrf	??___flmul+3
  4529  05DE  0879               	movf	??___flmul,w
  4530  05DF  07A9               	addwf	___flmul@grs,f
  4531  05E0  087A               	movf	??___flmul+1,w
  4532  05E1  1103               	clrz
  4533  05E2  1803               	skipnc
  4534  05E3  3E01               	addlw	1
  4535  05E4  1903               	skipnz
  4536  05E5  2DE7               	goto	u2861
  4537  05E6  07AA               	addwf	___flmul@grs+1,f
  4538  05E7                     u2861:	
  4539  05E7  087B               	movf	??___flmul+2,w
  4540  05E8  1103               	clrz
  4541  05E9  1803               	skipnc
  4542  05EA  3E01               	addlw	1
  4543  05EB  1903               	skipnz
  4544  05EC  2DEE               	goto	u2862
  4545  05ED  07AB               	addwf	___flmul@grs+2,f
  4546  05EE                     u2862:	
  4547  05EE  087C               	movf	??___flmul+3,w
  4548  05EF  1103               	clrz
  4549  05F0  1803               	skipnc
  4550  05F1  3E01               	addlw	1
  4551  05F2  1903               	skipnz
  4552  05F3  2DF5               	goto	u2863
  4553  05F4  07AC               	addwf	___flmul@grs+3,f
  4554  05F5                     u2863:	
  4555  05F5                     l1958:	
  4556  05F5  0820               	movf	___flmul@b,w
  4557  05F6  00F9               	movwf	??___flmul
  4558  05F7  0879               	movf	??___flmul,w
  4559  05F8  00F0               	movwf	__Umul8_16@multiplicand
  4560  05F9  0825               	movf	___flmul@a+1,w
  4561  05FA  120A  158A  2301  120A  118A  	fcall	__Umul8_16
  4562  05FF  0871               	movf	?__Umul8_16+1,w
  4563  0600  1283               	bcf	3,5	;RP0=0, select bank0
  4564  0601  1303               	bcf	3,6	;RP1=0, select bank0
  4565  0602  00B4               	movwf	___flmul@temp+1
  4566  0603  0870               	movf	?__Umul8_16,w
  4567  0604  00B3               	movwf	___flmul@temp
  4568  0605                     l1960:	
  4569  0605  0833               	movf	___flmul@temp,w
  4570  0606  00F9               	movwf	??___flmul
  4571  0607  0834               	movf	___flmul@temp+1,w
  4572  0608  00FA               	movwf	??___flmul+1
  4573  0609  01FB               	clrf	??___flmul+2
  4574  060A  01FC               	clrf	??___flmul+3
  4575  060B  0879               	movf	??___flmul,w
  4576  060C  07A9               	addwf	___flmul@grs,f
  4577  060D  087A               	movf	??___flmul+1,w
  4578  060E  1103               	clrz
  4579  060F  1803               	skipnc
  4580  0610  3E01               	addlw	1
  4581  0611  1903               	skipnz
  4582  0612  2E14               	goto	u2871
  4583  0613  07AA               	addwf	___flmul@grs+1,f
  4584  0614                     u2871:	
  4585  0614  087B               	movf	??___flmul+2,w
  4586  0615  1103               	clrz
  4587  0616  1803               	skipnc
  4588  0617  3E01               	addlw	1
  4589  0618  1903               	skipnz
  4590  0619  2E1B               	goto	u2872
  4591  061A  07AB               	addwf	___flmul@grs+2,f
  4592  061B                     u2872:	
  4593  061B  087C               	movf	??___flmul+3,w
  4594  061C  1103               	clrz
  4595  061D  1803               	skipnc
  4596  061E  3E01               	addlw	1
  4597  061F  1903               	skipnz
  4598  0620  2E22               	goto	u2873
  4599  0621  07AC               	addwf	___flmul@grs+3,f
  4600  0622                     u2873:	
  4601  0622                     l1962:	
  4602  0622  3008               	movlw	8
  4603  0623  00F9               	movwf	??___flmul
  4604  0624                     u2885:	
  4605  0624  1003               	clrc
  4606  0625  0DA9               	rlf	___flmul@grs,f
  4607  0626  0DAA               	rlf	___flmul@grs+1,f
  4608  0627  0DAB               	rlf	___flmul@grs+2,f
  4609  0628  0DAC               	rlf	___flmul@grs+3,f
  4610  0629  0BF9               	decfsz	??___flmul,f
  4611  062A  2E24               	goto	u2885
  4612  062B  0820               	movf	___flmul@b,w
  4613  062C  00F9               	movwf	??___flmul
  4614  062D  0879               	movf	??___flmul,w
  4615  062E  00F0               	movwf	__Umul8_16@multiplicand
  4616  062F  0824               	movf	___flmul@a,w
  4617  0630  120A  158A  2301  120A  118A  	fcall	__Umul8_16
  4618  0635  0871               	movf	?__Umul8_16+1,w
  4619  0636  1283               	bcf	3,5	;RP0=0, select bank0
  4620  0637  1303               	bcf	3,6	;RP1=0, select bank0
  4621  0638  00B4               	movwf	___flmul@temp+1
  4622  0639  0870               	movf	?__Umul8_16,w
  4623  063A  00B3               	movwf	___flmul@temp
  4624  063B                     l1964:	
  4625  063B  0833               	movf	___flmul@temp,w
  4626  063C  00F9               	movwf	??___flmul
  4627  063D  0834               	movf	___flmul@temp+1,w
  4628  063E  00FA               	movwf	??___flmul+1
  4629  063F  01FB               	clrf	??___flmul+2
  4630  0640  01FC               	clrf	??___flmul+3
  4631  0641  0879               	movf	??___flmul,w
  4632  0642  07A9               	addwf	___flmul@grs,f
  4633  0643  087A               	movf	??___flmul+1,w
  4634  0644  1103               	clrz
  4635  0645  1803               	skipnc
  4636  0646  3E01               	addlw	1
  4637  0647  1903               	skipnz
  4638  0648  2E4A               	goto	u2891
  4639  0649  07AA               	addwf	___flmul@grs+1,f
  4640  064A                     u2891:	
  4641  064A  087B               	movf	??___flmul+2,w
  4642  064B  1103               	clrz
  4643  064C  1803               	skipnc
  4644  064D  3E01               	addlw	1
  4645  064E  1903               	skipnz
  4646  064F  2E51               	goto	u2892
  4647  0650  07AB               	addwf	___flmul@grs+2,f
  4648  0651                     u2892:	
  4649  0651  087C               	movf	??___flmul+3,w
  4650  0652  1103               	clrz
  4651  0653  1803               	skipnc
  4652  0654  3E01               	addlw	1
  4653  0655  1903               	skipnz
  4654  0656  2E58               	goto	u2893
  4655  0657  07AC               	addwf	___flmul@grs+3,f
  4656  0658                     u2893:	
  4657  0658                     l1966:	
  4658  0658  0821               	movf	___flmul@b+1,w
  4659  0659  00F9               	movwf	??___flmul
  4660  065A  0879               	movf	??___flmul,w
  4661  065B  00F0               	movwf	__Umul8_16@multiplicand
  4662  065C  0826               	movf	___flmul@a+2,w
  4663  065D  120A  158A  2301  120A  118A  	fcall	__Umul8_16
  4664  0662  0871               	movf	?__Umul8_16+1,w
  4665  0663  1283               	bcf	3,5	;RP0=0, select bank0
  4666  0664  1303               	bcf	3,6	;RP1=0, select bank0
  4667  0665  00B4               	movwf	___flmul@temp+1
  4668  0666  0870               	movf	?__Umul8_16,w
  4669  0667  00B3               	movwf	___flmul@temp
  4670  0668  0833               	movf	___flmul@temp,w
  4671  0669  00F9               	movwf	??___flmul
  4672  066A  0834               	movf	___flmul@temp+1,w
  4673  066B  00FA               	movwf	??___flmul+1
  4674  066C  01FB               	clrf	??___flmul+2
  4675  066D  01FC               	clrf	??___flmul+3
  4676  066E  0879               	movf	??___flmul,w
  4677  066F  07AF               	addwf	___flmul@prod,f
  4678  0670  087A               	movf	??___flmul+1,w
  4679  0671  1103               	clrz
  4680  0672  1803               	skipnc
  4681  0673  3E01               	addlw	1
  4682  0674  1903               	skipnz
  4683  0675  2E77               	goto	u2901
  4684  0676  07B0               	addwf	___flmul@prod+1,f
  4685  0677                     u2901:	
  4686  0677  087B               	movf	??___flmul+2,w
  4687  0678  1103               	clrz
  4688  0679  1803               	skipnc
  4689  067A  3E01               	addlw	1
  4690  067B  1903               	skipnz
  4691  067C  2E7E               	goto	u2902
  4692  067D  07B1               	addwf	___flmul@prod+2,f
  4693  067E                     u2902:	
  4694  067E  087C               	movf	??___flmul+3,w
  4695  067F  1103               	clrz
  4696  0680  1803               	skipnc
  4697  0681  3E01               	addlw	1
  4698  0682  1903               	skipnz
  4699  0683  2E85               	goto	u2903
  4700  0684  07B2               	addwf	___flmul@prod+3,f
  4701  0685                     u2903:	
  4702  0685                     l1968:	
  4703  0685  0822               	movf	___flmul@b+2,w
  4704  0686  00F9               	movwf	??___flmul
  4705  0687  0879               	movf	??___flmul,w
  4706  0688  00F0               	movwf	__Umul8_16@multiplicand
  4707  0689  0825               	movf	___flmul@a+1,w
  4708  068A  120A  158A  2301  120A  118A  	fcall	__Umul8_16
  4709  068F  0871               	movf	?__Umul8_16+1,w
  4710  0690  1283               	bcf	3,5	;RP0=0, select bank0
  4711  0691  1303               	bcf	3,6	;RP1=0, select bank0
  4712  0692  00B4               	movwf	___flmul@temp+1
  4713  0693  0870               	movf	?__Umul8_16,w
  4714  0694  00B3               	movwf	___flmul@temp
  4715  0695                     l1970:	
  4716  0695  0833               	movf	___flmul@temp,w
  4717  0696  00F9               	movwf	??___flmul
  4718  0697  0834               	movf	___flmul@temp+1,w
  4719  0698  00FA               	movwf	??___flmul+1
  4720  0699  01FB               	clrf	??___flmul+2
  4721  069A  01FC               	clrf	??___flmul+3
  4722  069B  0879               	movf	??___flmul,w
  4723  069C  07AF               	addwf	___flmul@prod,f
  4724  069D  087A               	movf	??___flmul+1,w
  4725  069E  1103               	clrz
  4726  069F  1803               	skipnc
  4727  06A0  3E01               	addlw	1
  4728  06A1  1903               	skipnz
  4729  06A2  2EA4               	goto	u2911
  4730  06A3  07B0               	addwf	___flmul@prod+1,f
  4731  06A4                     u2911:	
  4732  06A4  087B               	movf	??___flmul+2,w
  4733  06A5  1103               	clrz
  4734  06A6  1803               	skipnc
  4735  06A7  3E01               	addlw	1
  4736  06A8  1903               	skipnz
  4737  06A9  2EAB               	goto	u2912
  4738  06AA  07B1               	addwf	___flmul@prod+2,f
  4739  06AB                     u2912:	
  4740  06AB  087C               	movf	??___flmul+3,w
  4741  06AC  1103               	clrz
  4742  06AD  1803               	skipnc
  4743  06AE  3E01               	addlw	1
  4744  06AF  1903               	skipnz
  4745  06B0  2EB2               	goto	u2913
  4746  06B1  07B2               	addwf	___flmul@prod+3,f
  4747  06B2                     u2913:	
  4748  06B2  0822               	movf	___flmul@b+2,w
  4749  06B3  00F9               	movwf	??___flmul
  4750  06B4  0879               	movf	??___flmul,w
  4751  06B5  00F0               	movwf	__Umul8_16@multiplicand
  4752  06B6  0826               	movf	___flmul@a+2,w
  4753  06B7  120A  158A  2301  120A  118A  	fcall	__Umul8_16
  4754  06BC  0871               	movf	?__Umul8_16+1,w
  4755  06BD  1283               	bcf	3,5	;RP0=0, select bank0
  4756  06BE  1303               	bcf	3,6	;RP1=0, select bank0
  4757  06BF  00B4               	movwf	___flmul@temp+1
  4758  06C0  0870               	movf	?__Umul8_16,w
  4759  06C1  00B3               	movwf	___flmul@temp
  4760  06C2                     l1972:	
  4761  06C2  0833               	movf	___flmul@temp,w
  4762  06C3  00F9               	movwf	??___flmul
  4763  06C4  0834               	movf	___flmul@temp+1,w
  4764  06C5  00FA               	movwf	??___flmul+1
  4765  06C6  01FB               	clrf	??___flmul+2
  4766  06C7  01FC               	clrf	??___flmul+3
  4767  06C8  3008               	movlw	8
  4768  06C9                     u2925:	
  4769  06C9  1003               	clrc
  4770  06CA  0DF9               	rlf	??___flmul,f
  4771  06CB  0DFA               	rlf	??___flmul+1,f
  4772  06CC  0DFB               	rlf	??___flmul+2,f
  4773  06CD  0DFC               	rlf	??___flmul+3,f
  4774  06CE                     u2920:	
  4775  06CE  3EFF               	addlw	-1
  4776  06CF  1D03               	skipz
  4777  06D0  2EC9               	goto	u2925
  4778  06D1  0879               	movf	??___flmul,w
  4779  06D2  07AF               	addwf	___flmul@prod,f
  4780  06D3  087A               	movf	??___flmul+1,w
  4781  06D4  1103               	clrz
  4782  06D5  1803               	skipnc
  4783  06D6  3E01               	addlw	1
  4784  06D7  1903               	skipnz
  4785  06D8  2EDA               	goto	u2931
  4786  06D9  07B0               	addwf	___flmul@prod+1,f
  4787  06DA                     u2931:	
  4788  06DA  087B               	movf	??___flmul+2,w
  4789  06DB  1103               	clrz
  4790  06DC  1803               	skipnc
  4791  06DD  3E01               	addlw	1
  4792  06DE  1903               	skipnz
  4793  06DF  2EE1               	goto	u2932
  4794  06E0  07B1               	addwf	___flmul@prod+2,f
  4795  06E1                     u2932:	
  4796  06E1  087C               	movf	??___flmul+3,w
  4797  06E2  1103               	clrz
  4798  06E3  1803               	skipnc
  4799  06E4  3E01               	addlw	1
  4800  06E5  1903               	skipnz
  4801  06E6  2EE8               	goto	u2933
  4802  06E7  07B2               	addwf	___flmul@prod+3,f
  4803  06E8                     u2933:	
  4804  06E8                     l1974:	
  4805  06E8  0829               	movf	___flmul@grs,w
  4806  06E9  00F9               	movwf	??___flmul
  4807  06EA  082A               	movf	___flmul@grs+1,w
  4808  06EB  00FA               	movwf	??___flmul+1
  4809  06EC  082B               	movf	___flmul@grs+2,w
  4810  06ED  00FB               	movwf	??___flmul+2
  4811  06EE  082C               	movf	___flmul@grs+3,w
  4812  06EF  00FC               	movwf	??___flmul+3
  4813  06F0  3018               	movlw	24
  4814  06F1                     u2945:	
  4815  06F1  1003               	clrc
  4816  06F2  0CFC               	rrf	??___flmul+3,f
  4817  06F3  0CFB               	rrf	??___flmul+2,f
  4818  06F4  0CFA               	rrf	??___flmul+1,f
  4819  06F5  0CF9               	rrf	??___flmul,f
  4820  06F6                     u2940:	
  4821  06F6  3EFF               	addlw	-1
  4822  06F7  1D03               	skipz
  4823  06F8  2EF1               	goto	u2945
  4824  06F9  0879               	movf	??___flmul,w
  4825  06FA  07AF               	addwf	___flmul@prod,f
  4826  06FB  087A               	movf	??___flmul+1,w
  4827  06FC  1103               	clrz
  4828  06FD  1803               	skipnc
  4829  06FE  3E01               	addlw	1
  4830  06FF  1903               	skipnz
  4831  0700  2F02               	goto	u2951
  4832  0701  07B0               	addwf	___flmul@prod+1,f
  4833  0702                     u2951:	
  4834  0702  087B               	movf	??___flmul+2,w
  4835  0703  1103               	clrz
  4836  0704  1803               	skipnc
  4837  0705  3E01               	addlw	1
  4838  0706  1903               	skipnz
  4839  0707  2F09               	goto	u2952
  4840  0708  07B1               	addwf	___flmul@prod+2,f
  4841  0709                     u2952:	
  4842  0709  087C               	movf	??___flmul+3,w
  4843  070A  1103               	clrz
  4844  070B  1803               	skipnc
  4845  070C  3E01               	addlw	1
  4846  070D  1903               	skipnz
  4847  070E  2F10               	goto	u2953
  4848  070F  07B2               	addwf	___flmul@prod+3,f
  4849  0710                     u2953:	
  4850  0710                     l1976:	
  4851  0710  3008               	movlw	8
  4852  0711  00F9               	movwf	??___flmul
  4853  0712                     u2965:	
  4854  0712  1003               	clrc
  4855  0713  0DA9               	rlf	___flmul@grs,f
  4856  0714  0DAA               	rlf	___flmul@grs+1,f
  4857  0715  0DAB               	rlf	___flmul@grs+2,f
  4858  0716  0DAC               	rlf	___flmul@grs+3,f
  4859  0717  0BF9               	decfsz	??___flmul,f
  4860  0718  2F12               	goto	u2965
  4861  0719                     l1978:	
  4862  0719  082E               	movf	___flmul@bexp,w
  4863  071A  072D               	addwf	___flmul@aexp,w
  4864  071B  00F9               	movwf	??___flmul
  4865  071C  01FA               	clrf	??___flmul+1
  4866  071D  0DFA               	rlf	??___flmul+1,f
  4867  071E  0879               	movf	??___flmul,w
  4868  071F  3E82               	addlw	130
  4869  0720  00B3               	movwf	___flmul@temp
  4870  0721  087A               	movf	??___flmul+1,w
  4871  0722  1803               	skipnc
  4872  0723  3E01               	addlw	1
  4873  0724  3EFF               	addlw	255
  4874  0725  00B4               	movwf	___flmul@temp+1
  4875  0726  2F44               	goto	l1990
  4876  0727                     l1980:	
  4877  0727  3001               	movlw	1
  4878  0728  00F9               	movwf	??___flmul
  4879  0729                     u2975:	
  4880  0729  1003               	clrc
  4881  072A  0DAF               	rlf	___flmul@prod,f
  4882  072B  0DB0               	rlf	___flmul@prod+1,f
  4883  072C  0DB1               	rlf	___flmul@prod+2,f
  4884  072D  0DB2               	rlf	___flmul@prod+3,f
  4885  072E  0BF9               	decfsz	??___flmul,f
  4886  072F  2F29               	goto	u2975
  4887  0730                     l1982:	
  4888  0730  1FAC               	btfss	___flmul@grs+3,7
  4889  0731  2F33               	goto	u2981
  4890  0732  2F34               	goto	u2980
  4891  0733                     u2981:	
  4892  0733  2F35               	goto	l1986
  4893  0734                     u2980:	
  4894  0734                     l1984:	
  4895  0734  142F               	bsf	___flmul@prod,0
  4896  0735                     l1986:	
  4897  0735  3001               	movlw	1
  4898  0736  00F9               	movwf	??___flmul
  4899  0737                     u2995:	
  4900  0737  1003               	clrc
  4901  0738  0DA9               	rlf	___flmul@grs,f
  4902  0739  0DAA               	rlf	___flmul@grs+1,f
  4903  073A  0DAB               	rlf	___flmul@grs+2,f
  4904  073B  0DAC               	rlf	___flmul@grs+3,f
  4905  073C  0BF9               	decfsz	??___flmul,f
  4906  073D  2F37               	goto	u2995
  4907  073E                     l1988:	
  4908  073E  30FF               	movlw	255
  4909  073F  07B3               	addwf	___flmul@temp,f
  4910  0740  1803               	skipnc
  4911  0741  0AB4               	incf	___flmul@temp+1,f
  4912  0742  30FF               	movlw	255
  4913  0743  07B4               	addwf	___flmul@temp+1,f
  4914  0744                     l1990:	
  4915  0744  1FB1               	btfss	___flmul@prod+2,7
  4916  0745  2F47               	goto	u3001
  4917  0746  2F48               	goto	u3000
  4918  0747                     u3001:	
  4919  0747  2F27               	goto	l1980
  4920  0748                     u3000:	
  4921  0748                     l1992:	
  4922  0748  01AD               	clrf	___flmul@aexp
  4923  0749                     l1994:	
  4924  0749  1FAC               	btfss	___flmul@grs+3,7
  4925  074A  2F4C               	goto	u3011
  4926  074B  2F4D               	goto	u3010
  4927  074C                     u3011:	
  4928  074C  2F69               	goto	l2002
  4929  074D                     u3010:	
  4930  074D                     l1996:	
  4931  074D  30FF               	movlw	255
  4932  074E  0529               	andwf	___flmul@grs,w
  4933  074F  00F9               	movwf	??___flmul
  4934  0750  30FF               	movlw	255
  4935  0751  052A               	andwf	___flmul@grs+1,w
  4936  0752  00FA               	movwf	??___flmul+1
  4937  0753  30FF               	movlw	255
  4938  0754  052B               	andwf	___flmul@grs+2,w
  4939  0755  00FB               	movwf	??___flmul+2
  4940  0756  307F               	movlw	127
  4941  0757  052C               	andwf	___flmul@grs+3,w
  4942  0758  00FC               	movwf	??___flmul+3
  4943  0759  087C               	movf	??___flmul+3,w
  4944  075A  047B               	iorwf	??___flmul+2,w
  4945  075B  047A               	iorwf	??___flmul+1,w
  4946  075C  0479               	iorwf	??___flmul,w
  4947  075D  1903               	skipnz
  4948  075E  2F60               	goto	u3021
  4949  075F  2F61               	goto	u3020
  4950  0760                     u3021:	
  4951  0760  2F64               	goto	l612
  4952  0761                     u3020:	
  4953  0761                     l1998:	
  4954  0761  01AD               	clrf	___flmul@aexp
  4955  0762  0AAD               	incf	___flmul@aexp,f
  4956  0763  2F69               	goto	l2002
  4957  0764                     l612:	
  4958  0764  1C2F               	btfss	___flmul@prod,0
  4959  0765  2F67               	goto	u3031
  4960  0766  2F68               	goto	u3030
  4961  0767                     u3031:	
  4962  0767  2F69               	goto	l2002
  4963  0768                     u3030:	
  4964  0768  2F61               	goto	l1998
  4965  0769                     l2002:	
  4966  0769  082D               	movf	___flmul@aexp,w
  4967  076A  1903               	btfsc	3,2
  4968  076B  2F6D               	goto	u3041
  4969  076C  2F6E               	goto	u3040
  4970  076D                     u3041:	
  4971  076D  2F9F               	goto	l2012
  4972  076E                     u3040:	
  4973  076E                     l2004:	
  4974  076E  3001               	movlw	1
  4975  076F  07AF               	addwf	___flmul@prod,f
  4976  0770  3000               	movlw	0
  4977  0771  1803               	skipnc
  4978  0772  3001               	movlw	1
  4979  0773  07B0               	addwf	___flmul@prod+1,f
  4980  0774  3000               	movlw	0
  4981  0775  1803               	skipnc
  4982  0776  3001               	movlw	1
  4983  0777  07B1               	addwf	___flmul@prod+2,f
  4984  0778  3000               	movlw	0
  4985  0779  1803               	skipnc
  4986  077A  3001               	movlw	1
  4987  077B  07B2               	addwf	___flmul@prod+3,f
  4988  077C                     l2006:	
  4989  077C  1C32               	btfss	___flmul@prod+3,0
  4990  077D  2F7F               	goto	u3051
  4991  077E  2F80               	goto	u3050
  4992  077F                     u3051:	
  4993  077F  2F9F               	goto	l2012
  4994  0780                     u3050:	
  4995  0780                     l2008:	
  4996  0780  082F               	movf	___flmul@prod,w
  4997  0781  00F9               	movwf	??___flmul
  4998  0782  0830               	movf	___flmul@prod+1,w
  4999  0783  00FA               	movwf	??___flmul+1
  5000  0784  0831               	movf	___flmul@prod+2,w
  5001  0785  00FB               	movwf	??___flmul+2
  5002  0786  0832               	movf	___flmul@prod+3,w
  5003  0787  00FC               	movwf	??___flmul+3
  5004  0788  3001               	movlw	1
  5005  0789  00FD               	movwf	??___flmul+4
  5006  078A                     u3065:	
  5007  078A  0D7C               	rlf	??___flmul+3,w
  5008  078B  0CFC               	rrf	??___flmul+3,f
  5009  078C  0CFB               	rrf	??___flmul+2,f
  5010  078D  0CFA               	rrf	??___flmul+1,f
  5011  078E  0CF9               	rrf	??___flmul,f
  5012  078F                     u3060:	
  5013  078F  0BFD               	decfsz	??___flmul+4,f
  5014  0790  2F8A               	goto	u3065
  5015  0791  087C               	movf	??___flmul+3,w
  5016  0792  00B2               	movwf	___flmul@prod+3
  5017  0793  087B               	movf	??___flmul+2,w
  5018  0794  00B1               	movwf	___flmul@prod+2
  5019  0795  087A               	movf	??___flmul+1,w
  5020  0796  00B0               	movwf	___flmul@prod+1
  5021  0797  0879               	movf	??___flmul,w
  5022  0798  00AF               	movwf	___flmul@prod
  5023  0799                     l2010:	
  5024  0799  3001               	movlw	1
  5025  079A  07B3               	addwf	___flmul@temp,f
  5026  079B  1803               	skipnc
  5027  079C  0AB4               	incf	___flmul@temp+1,f
  5028  079D  3000               	movlw	0
  5029  079E  07B4               	addwf	___flmul@temp+1,f
  5030  079F                     l2012:	
  5031  079F  0834               	movf	___flmul@temp+1,w
  5032  07A0  3A80               	xorlw	128
  5033  07A1  00FF               	movwf	btemp+1
  5034  07A2  3080               	movlw	128
  5035  07A3  027F               	subwf	btemp+1,w
  5036  07A4  1D03               	skipz
  5037  07A5  2FA8               	goto	u3075
  5038  07A6  30FF               	movlw	255
  5039  07A7  0233               	subwf	___flmul@temp,w
  5040  07A8                     u3075:	
  5041  07A8  1C03               	skipc
  5042  07A9  2FAB               	goto	u3071
  5043  07AA  2FAC               	goto	u3070
  5044  07AB                     u3071:	
  5045  07AB  2FB7               	goto	l2016
  5046  07AC                     u3070:	
  5047  07AC                     l2014:	
  5048  07AC  307F               	movlw	127
  5049  07AD  1283               	bcf	3,5	;RP0=0, select bank0
  5050  07AE  1303               	bcf	3,6	;RP1=0, select bank0
  5051  07AF  00B2               	movwf	___flmul@prod+3
  5052  07B0  3080               	movlw	128
  5053  07B1  00B1               	movwf	___flmul@prod+2
  5054  07B2  3000               	movlw	0
  5055  07B3  00B0               	movwf	___flmul@prod+1
  5056  07B4  3000               	movlw	0
  5057  07B5  00AF               	movwf	___flmul@prod
  5058  07B6  2FEC               	goto	l618
  5059  07B7                     l2016:	
  5060  07B7  1283               	bcf	3,5	;RP0=0, select bank0
  5061  07B8  1303               	bcf	3,6	;RP1=0, select bank0
  5062  07B9  0834               	movf	___flmul@temp+1,w
  5063  07BA  3A80               	xorlw	128
  5064  07BB  00FF               	movwf	btemp+1
  5065  07BC  3080               	movlw	128
  5066  07BD  027F               	subwf	btemp+1,w
  5067  07BE  1D03               	skipz
  5068  07BF  2FC2               	goto	u3085
  5069  07C0  3001               	movlw	1
  5070  07C1  0233               	subwf	___flmul@temp,w
  5071  07C2                     u3085:	
  5072  07C2  1803               	skipnc
  5073  07C3  2FC5               	goto	u3081
  5074  07C4  2FC6               	goto	u3080
  5075  07C5                     u3081:	
  5076  07C5  2FD2               	goto	l2022
  5077  07C6                     u3080:	
  5078  07C6                     l2018:	
  5079  07C6  3000               	movlw	0
  5080  07C7  1283               	bcf	3,5	;RP0=0, select bank0
  5081  07C8  1303               	bcf	3,6	;RP1=0, select bank0
  5082  07C9  00B2               	movwf	___flmul@prod+3
  5083  07CA  3000               	movlw	0
  5084  07CB  00B1               	movwf	___flmul@prod+2
  5085  07CC  3000               	movlw	0
  5086  07CD  00B0               	movwf	___flmul@prod+1
  5087  07CE  3000               	movlw	0
  5088  07CF  00AF               	movwf	___flmul@prod
  5089  07D0                     l2020:	
  5090  07D0  01A8               	clrf	___flmul@sign
  5091  07D1  2FEC               	goto	l618
  5092  07D2                     l2022:	
  5093  07D2  1283               	bcf	3,5	;RP0=0, select bank0
  5094  07D3  1303               	bcf	3,6	;RP1=0, select bank0
  5095  07D4  0833               	movf	___flmul@temp,w
  5096  07D5  00F9               	movwf	??___flmul
  5097  07D6  0879               	movf	??___flmul,w
  5098  07D7  00AE               	movwf	___flmul@bexp
  5099  07D8  30FF               	movlw	255
  5100  07D9  05AF               	andwf	___flmul@prod,f
  5101  07DA  30FF               	movlw	255
  5102  07DB  05B0               	andwf	___flmul@prod+1,f
  5103  07DC  307F               	movlw	127
  5104  07DD  05B1               	andwf	___flmul@prod+2,f
  5105  07DE  3000               	movlw	0
  5106  07DF  05B2               	andwf	___flmul@prod+3,f
  5107  07E0                     l2024:	
  5108  07E0  1C2E               	btfss	___flmul@bexp,0
  5109  07E1  2FE3               	goto	u3091
  5110  07E2  2FE4               	goto	u3090
  5111  07E3                     u3091:	
  5112  07E3  2FE5               	goto	l2028
  5113  07E4                     u3090:	
  5114  07E4                     l2026:	
  5115  07E4  17B1               	bsf	___flmul@prod+2,7
  5116  07E5                     l2028:	
  5117  07E5  082E               	movf	___flmul@bexp,w
  5118  07E6  00F9               	movwf	??___flmul
  5119  07E7  1003               	clrc
  5120  07E8  0C79               	rrf	??___flmul,w
  5121  07E9  00FA               	movwf	??___flmul+1
  5122  07EA  087A               	movf	??___flmul+1,w
  5123  07EB  00B2               	movwf	___flmul@prod+3
  5124  07EC                     l618:	
  5125  07EC  0828               	movf	___flmul@sign,w
  5126  07ED  00F9               	movwf	??___flmul
  5127  07EE  0879               	movf	??___flmul,w
  5128  07EF  04B2               	iorwf	___flmul@prod+3,f
  5129  07F0                     l2030:	
  5130  07F0  0832               	movf	___flmul@prod+3,w
  5131  07F1  00A3               	movwf	?___flmul+3
  5132  07F2  0831               	movf	___flmul@prod+2,w
  5133  07F3  00A2               	movwf	?___flmul+2
  5134  07F4  0830               	movf	___flmul@prod+1,w
  5135  07F5  00A1               	movwf	?___flmul+1
  5136  07F6  082F               	movf	___flmul@prod,w
  5137  07F7  00A0               	movwf	?___flmul
  5138  07F8                     l606:	
  5139  07F8  0008               	return
  5140  07F9                     __end_of___flmul:	
  5141                           
  5142                           	psect	text16
  5143  0B01                     __ptext16:	
  5144 ;; *************** function __Umul8_16 *****************
  5145 ;; Defined at:
  5146 ;;		line 4 in file "C:\Program Files (x86)\Microchip\xc8\v2.10\pic\sources\c90\common\Umul8_16.c"
  5147 ;; Parameters:    Size  Location     Type
  5148 ;;  multiplier      1    wreg     unsigned char 
  5149 ;;  multiplicand    1    0[COMMON] unsigned char 
  5150 ;; Auto vars:     Size  Location     Type
  5151 ;;  multiplier      1    8[COMMON] unsigned char 
  5152 ;;  word_mpld       2    6[COMMON] unsigned int 
  5153 ;;  product         2    4[COMMON] unsigned int 
  5154 ;; Return value:  Size  Location     Type
  5155 ;;                  2    0[COMMON] unsigned int 
  5156 ;; Registers used:
  5157 ;;		wreg, status,2, status,0
  5158 ;; Tracked objects:
  5159 ;;		On entry : 0/0
  5160 ;;		On exit  : 0/0
  5161 ;;		Unchanged: 0/0
  5162 ;; Data sizes:     COMMON   BANK0   BANK1   BANK3   BANK2
  5163 ;;      Params:         2       0       0       0       0
  5164 ;;      Locals:         5       0       0       0       0
  5165 ;;      Temps:          2       0       0       0       0
  5166 ;;      Totals:         9       0       0       0       0
  5167 ;;Total ram usage:        9 bytes
  5168 ;; Hardware stack levels used:    1
  5169 ;; This function calls:
  5170 ;;		Nothing
  5171 ;; This function is called by:
  5172 ;;		___flmul
  5173 ;; This function uses a non-reentrant model
  5174 ;;
  5175                           
  5176                           
  5177                           ;psect for function __Umul8_16
  5178  0B01                     __Umul8_16:	
  5179                           
  5180                           ;incstack = 0
  5181                           ; Regs used in __Umul8_16: [wreg+status,2+status,0]
  5182                           ;__Umul8_16@multiplier stored from wreg
  5183  0B01  00F8               	movwf	__Umul8_16@multiplier
  5184  0B02                     l1712:	
  5185  0B02  01F4               	clrf	__Umul8_16@product
  5186  0B03  01F5               	clrf	__Umul8_16@product+1
  5187  0B04                     l1714:	
  5188  0B04  0870               	movf	__Umul8_16@multiplicand,w
  5189  0B05  00F2               	movwf	??__Umul8_16
  5190  0B06  01F3               	clrf	??__Umul8_16+1
  5191  0B07  0872               	movf	??__Umul8_16,w
  5192  0B08  00F6               	movwf	__Umul8_16@word_mpld
  5193  0B09  0873               	movf	??__Umul8_16+1,w
  5194  0B0A  00F7               	movwf	__Umul8_16@word_mpld+1
  5195  0B0B                     l1716:	
  5196  0B0B  1C78               	btfss	__Umul8_16@multiplier,0
  5197  0B0C  2B0E               	goto	u2171
  5198  0B0D  2B0F               	goto	u2170
  5199  0B0E                     u2171:	
  5200  0B0E  2B15               	goto	l684
  5201  0B0F                     u2170:	
  5202  0B0F                     l1718:	
  5203  0B0F  0876               	movf	__Umul8_16@word_mpld,w
  5204  0B10  07F4               	addwf	__Umul8_16@product,f
  5205  0B11  1803               	skipnc
  5206  0B12  0AF5               	incf	__Umul8_16@product+1,f
  5207  0B13  0877               	movf	__Umul8_16@word_mpld+1,w
  5208  0B14  07F5               	addwf	__Umul8_16@product+1,f
  5209  0B15                     l684:	
  5210  0B15  3001               	movlw	1
  5211  0B16                     u2185:	
  5212  0B16  1003               	clrc
  5213  0B17  0DF6               	rlf	__Umul8_16@word_mpld,f
  5214  0B18  0DF7               	rlf	__Umul8_16@word_mpld+1,f
  5215  0B19  3EFF               	addlw	-1
  5216  0B1A  1D03               	skipz
  5217  0B1B  2B16               	goto	u2185
  5218  0B1C  1003               	clrc
  5219  0B1D  0CF8               	rrf	__Umul8_16@multiplier,f
  5220  0B1E                     l1720:	
  5221  0B1E  0878               	movf	__Umul8_16@multiplier,w
  5222  0B1F  1D03               	btfss	3,2
  5223  0B20  2B22               	goto	u2191
  5224  0B21  2B23               	goto	u2190
  5225  0B22                     u2191:	
  5226  0B22  2B0B               	goto	l1716
  5227  0B23                     u2190:	
  5228  0B23                     l1722:	
  5229  0B23  0875               	movf	__Umul8_16@product+1,w
  5230  0B24  00F1               	movwf	?__Umul8_16+1
  5231  0B25  0874               	movf	__Umul8_16@product,w
  5232  0B26  00F0               	movwf	?__Umul8_16
  5233  0B27                     l686:	
  5234  0B27  0008               	return
  5235  0B28                     __end_of__Umul8_16:	
  5236                           
  5237                           	psect	text17
  5238  005C                     __ptext17:	
  5239 ;; *************** function ___flge *****************
  5240 ;; Defined at:
  5241 ;;		line 4 in file "C:\Program Files (x86)\Microchip\xc8\v2.10\pic\sources\c90\common\flge.c"
  5242 ;; Parameters:    Size  Location     Type
  5243 ;;  ff1             4    0[COMMON] unsigned int 
  5244 ;;  ff2             4    4[COMMON] unsigned int 
  5245 ;; Auto vars:     Size  Location     Type
  5246 ;;		None
  5247 ;; Return value:  Size  Location     Type
  5248 ;;		None               void
  5249 ;; Registers used:
  5250 ;;		wreg, status,2, status,0
  5251 ;; Tracked objects:
  5252 ;;		On entry : 0/0
  5253 ;;		On exit  : 0/0
  5254 ;;		Unchanged: 0/0
  5255 ;; Data sizes:     COMMON   BANK0   BANK1   BANK3   BANK2
  5256 ;;      Params:         8       0       0       0       0
  5257 ;;      Locals:         0       0       0       0       0
  5258 ;;      Temps:          4       0       0       0       0
  5259 ;;      Totals:        12       0       0       0       0
  5260 ;;Total ram usage:       12 bytes
  5261 ;; Hardware stack levels used:    1
  5262 ;; This function calls:
  5263 ;;		Nothing
  5264 ;; This function is called by:
  5265 ;;		_ftoa
  5266 ;; This function uses a non-reentrant model
  5267 ;;
  5268                           
  5269                           
  5270                           ;psect for function ___flge
  5271  005C                     ___flge:	
  5272  005C                     l1824:	
  5273                           ;incstack = 0
  5274                           ; Regs used in ___flge: [wreg+status,2+status,0]
  5275                           
  5276  005C  3000               	movlw	0
  5277  005D  0570               	andwf	___flge@ff1,w
  5278  005E  00F8               	movwf	??___flge
  5279  005F  3000               	movlw	0
  5280  0060  0571               	andwf	___flge@ff1+1,w
  5281  0061  00F9               	movwf	??___flge+1
  5282  0062  3080               	movlw	128
  5283  0063  0572               	andwf	___flge@ff1+2,w
  5284  0064  00FA               	movwf	??___flge+2
  5285  0065  307F               	movlw	127
  5286  0066  0573               	andwf	___flge@ff1+3,w
  5287  0067  00FB               	movwf	??___flge+3
  5288  0068  087B               	movf	??___flge+3,w
  5289  0069  047A               	iorwf	??___flge+2,w
  5290  006A  0479               	iorwf	??___flge+1,w
  5291  006B  0478               	iorwf	??___flge,w
  5292  006C  1D03               	skipz
  5293  006D  286F               	goto	u2551
  5294  006E  2870               	goto	u2550
  5295  006F                     u2551:	
  5296  006F  2878               	goto	l391
  5297  0070                     u2550:	
  5298  0070                     l1826:	
  5299  0070  3000               	movlw	0
  5300  0071  00F3               	movwf	___flge@ff1+3
  5301  0072  3000               	movlw	0
  5302  0073  00F2               	movwf	___flge@ff1+2
  5303  0074  3000               	movlw	0
  5304  0075  00F1               	movwf	___flge@ff1+1
  5305  0076  3000               	movlw	0
  5306  0077  00F0               	movwf	___flge@ff1
  5307  0078                     l391:	
  5308  0078  3000               	movlw	0
  5309  0079  0574               	andwf	___flge@ff2,w
  5310  007A  00F8               	movwf	??___flge
  5311  007B  3000               	movlw	0
  5312  007C  0575               	andwf	___flge@ff2+1,w
  5313  007D  00F9               	movwf	??___flge+1
  5314  007E  3080               	movlw	128
  5315  007F  0576               	andwf	___flge@ff2+2,w
  5316  0080  00FA               	movwf	??___flge+2
  5317  0081  307F               	movlw	127
  5318  0082  0577               	andwf	___flge@ff2+3,w
  5319  0083  00FB               	movwf	??___flge+3
  5320  0084  087B               	movf	??___flge+3,w
  5321  0085  047A               	iorwf	??___flge+2,w
  5322  0086  0479               	iorwf	??___flge+1,w
  5323  0087  0478               	iorwf	??___flge,w
  5324  0088  1D03               	skipz
  5325  0089  288B               	goto	u2561
  5326  008A  288C               	goto	u2560
  5327  008B                     u2561:	
  5328  008B  2894               	goto	l1830
  5329  008C                     u2560:	
  5330  008C                     l1828:	
  5331  008C  3000               	movlw	0
  5332  008D  00F7               	movwf	___flge@ff2+3
  5333  008E  3000               	movlw	0
  5334  008F  00F6               	movwf	___flge@ff2+2
  5335  0090  3000               	movlw	0
  5336  0091  00F5               	movwf	___flge@ff2+1
  5337  0092  3000               	movlw	0
  5338  0093  00F4               	movwf	___flge@ff2
  5339  0094                     l1830:	
  5340  0094  1FF3               	btfss	___flge@ff1+3,7
  5341  0095  2897               	goto	u2571
  5342  0096  2898               	goto	u2570
  5343  0097                     u2571:	
  5344  0097  28BC               	goto	l1834
  5345  0098                     u2570:	
  5346  0098                     l1832:	
  5347  0098  3000               	movlw	0
  5348  0099  00F8               	movwf	??___flge
  5349  009A  3000               	movlw	0
  5350  009B  00F9               	movwf	??___flge+1
  5351  009C  3000               	movlw	0
  5352  009D  00FA               	movwf	??___flge+2
  5353  009E  3080               	movlw	128
  5354  009F  00FB               	movwf	??___flge+3
  5355  00A0  0870               	movf	___flge@ff1,w
  5356  00A1  02F8               	subwf	??___flge,f
  5357  00A2  0871               	movf	___flge@ff1+1,w
  5358  00A3  1C03               	skipc
  5359  00A4  0F71               	incfsz	___flge@ff1+1,w
  5360  00A5  28A7               	goto	u2581
  5361  00A6  28A8               	goto	u2582
  5362  00A7                     u2581:	
  5363  00A7  02F9               	subwf	??___flge+1,f
  5364  00A8                     u2582:	
  5365  00A8  0872               	movf	___flge@ff1+2,w
  5366  00A9  1C03               	skipc
  5367  00AA  0F72               	incfsz	___flge@ff1+2,w
  5368  00AB  28AD               	goto	u2583
  5369  00AC  28AE               	goto	u2584
  5370  00AD                     u2583:	
  5371  00AD  02FA               	subwf	??___flge+2,f
  5372  00AE                     u2584:	
  5373  00AE  0873               	movf	___flge@ff1+3,w
  5374  00AF  1C03               	skipc
  5375  00B0  0F73               	incfsz	___flge@ff1+3,w
  5376  00B1  28B3               	goto	u2585
  5377  00B2  28B4               	goto	u2586
  5378  00B3                     u2585:	
  5379  00B3  02FB               	subwf	??___flge+3,f
  5380  00B4                     u2586:	
  5381  00B4  087B               	movf	??___flge+3,w
  5382  00B5  00F3               	movwf	___flge@ff1+3
  5383  00B6  087A               	movf	??___flge+2,w
  5384  00B7  00F2               	movwf	___flge@ff1+2
  5385  00B8  0879               	movf	??___flge+1,w
  5386  00B9  00F1               	movwf	___flge@ff1+1
  5387  00BA  0878               	movf	??___flge,w
  5388  00BB  00F0               	movwf	___flge@ff1
  5389  00BC                     l1834:	
  5390  00BC  1FF7               	btfss	___flge@ff2+3,7
  5391  00BD  28BF               	goto	u2591
  5392  00BE  28C0               	goto	u2590
  5393  00BF                     u2591:	
  5394  00BF  28E4               	goto	l394
  5395  00C0                     u2590:	
  5396  00C0                     l1836:	
  5397  00C0  3000               	movlw	0
  5398  00C1  00F8               	movwf	??___flge
  5399  00C2  3000               	movlw	0
  5400  00C3  00F9               	movwf	??___flge+1
  5401  00C4  3000               	movlw	0
  5402  00C5  00FA               	movwf	??___flge+2
  5403  00C6  3080               	movlw	128
  5404  00C7  00FB               	movwf	??___flge+3
  5405  00C8  0874               	movf	___flge@ff2,w
  5406  00C9  02F8               	subwf	??___flge,f
  5407  00CA  0875               	movf	___flge@ff2+1,w
  5408  00CB  1C03               	skipc
  5409  00CC  0F75               	incfsz	___flge@ff2+1,w
  5410  00CD  28CF               	goto	u2601
  5411  00CE  28D0               	goto	u2602
  5412  00CF                     u2601:	
  5413  00CF  02F9               	subwf	??___flge+1,f
  5414  00D0                     u2602:	
  5415  00D0  0876               	movf	___flge@ff2+2,w
  5416  00D1  1C03               	skipc
  5417  00D2  0F76               	incfsz	___flge@ff2+2,w
  5418  00D3  28D5               	goto	u2603
  5419  00D4  28D6               	goto	u2604
  5420  00D5                     u2603:	
  5421  00D5  02FA               	subwf	??___flge+2,f
  5422  00D6                     u2604:	
  5423  00D6  0877               	movf	___flge@ff2+3,w
  5424  00D7  1C03               	skipc
  5425  00D8  0F77               	incfsz	___flge@ff2+3,w
  5426  00D9  28DB               	goto	u2605
  5427  00DA  28DC               	goto	u2606
  5428  00DB                     u2605:	
  5429  00DB  02FB               	subwf	??___flge+3,f
  5430  00DC                     u2606:	
  5431  00DC  087B               	movf	??___flge+3,w
  5432  00DD  00F7               	movwf	___flge@ff2+3
  5433  00DE  087A               	movf	??___flge+2,w
  5434  00DF  00F6               	movwf	___flge@ff2+2
  5435  00E0  0879               	movf	??___flge+1,w
  5436  00E1  00F5               	movwf	___flge@ff2+1
  5437  00E2  0878               	movf	??___flge,w
  5438  00E3  00F4               	movwf	___flge@ff2
  5439  00E4                     l394:	
  5440  00E4  3080               	movlw	128
  5441  00E5  06F3               	xorwf	___flge@ff1+3,f
  5442  00E6  3080               	movlw	128
  5443  00E7  06F7               	xorwf	___flge@ff2+3,f
  5444  00E8  0877               	movf	___flge@ff2+3,w
  5445  00E9  0273               	subwf	___flge@ff1+3,w
  5446  00EA  1D03               	skipz
  5447  00EB  28F6               	goto	u2615
  5448  00EC  0876               	movf	___flge@ff2+2,w
  5449  00ED  0272               	subwf	___flge@ff1+2,w
  5450  00EE  1D03               	skipz
  5451  00EF  28F6               	goto	u2615
  5452  00F0  0875               	movf	___flge@ff2+1,w
  5453  00F1  0271               	subwf	___flge@ff1+1,w
  5454  00F2  1D03               	skipz
  5455  00F3  28F6               	goto	u2615
  5456  00F4  0874               	movf	___flge@ff2,w
  5457  00F5  0270               	subwf	___flge@ff1,w
  5458  00F6                     u2615:	
  5459  00F6  1803               	skipnc
  5460  00F7  28F9               	goto	u2611
  5461  00F8  28FA               	goto	u2610
  5462  00F9                     u2611:	
  5463  00F9  28FC               	goto	l1840
  5464  00FA                     u2610:	
  5465  00FA                     l1838:	
  5466  00FA  1003               	clrc
  5467  00FB  28FD               	goto	l395
  5468  00FC                     l1840:	
  5469  00FC  1403               	setc
  5470  00FD                     l395:	
  5471  00FD  0008               	return
  5472  00FE                     __end_of___flge:	
  5473                           
  5474                           	psect	text18
  5475  0C46                     __ptext18:	
  5476 ;; *************** function ___almod *****************
  5477 ;; Defined at:
  5478 ;;		line 5 in file "C:\Program Files (x86)\Microchip\xc8\v2.10\pic\sources\c90\common\almod.c"
  5479 ;; Parameters:    Size  Location     Type
  5480 ;;  divisor         4    0[COMMON] long 
  5481 ;;  dividend        4    4[COMMON] long 
  5482 ;; Auto vars:     Size  Location     Type
  5483 ;;  sign            1   10[COMMON] unsigned char 
  5484 ;;  counter         1    9[COMMON] unsigned char 
  5485 ;; Return value:  Size  Location     Type
  5486 ;;                  4    0[COMMON] long 
  5487 ;; Registers used:
  5488 ;;		wreg, status,2, status,0
  5489 ;; Tracked objects:
  5490 ;;		On entry : 0/0
  5491 ;;		On exit  : 0/0
  5492 ;;		Unchanged: 0/0
  5493 ;; Data sizes:     COMMON   BANK0   BANK1   BANK3   BANK2
  5494 ;;      Params:         8       0       0       0       0
  5495 ;;      Locals:         2       0       0       0       0
  5496 ;;      Temps:          1       0       0       0       0
  5497 ;;      Totals:        11       0       0       0       0
  5498 ;;Total ram usage:       11 bytes
  5499 ;; Hardware stack levels used:    1
  5500 ;; This function calls:
  5501 ;;		Nothing
  5502 ;; This function is called by:
  5503 ;;		_ftoa
  5504 ;; This function uses a non-reentrant model
  5505 ;;
  5506                           
  5507                           
  5508                           ;psect for function ___almod
  5509  0C46                     ___almod:	
  5510  0C46                     l1792:	
  5511                           ;incstack = 0
  5512                           ; Regs used in ___almod: [wreg+status,2+status,0]
  5513                           
  5514  0C46  01FA               	clrf	___almod@sign
  5515  0C47                     l1794:	
  5516  0C47  1FF7               	btfss	___almod@dividend+3,7
  5517  0C48  2C4A               	goto	u2461
  5518  0C49  2C4B               	goto	u2460
  5519  0C4A                     u2461:	
  5520  0C4A  2C58               	goto	l295
  5521  0C4B                     u2460:	
  5522  0C4B                     l1796:	
  5523  0C4B  09F4               	comf	___almod@dividend,f
  5524  0C4C  09F5               	comf	___almod@dividend+1,f
  5525  0C4D  09F6               	comf	___almod@dividend+2,f
  5526  0C4E  09F7               	comf	___almod@dividend+3,f
  5527  0C4F  0AF4               	incf	___almod@dividend,f
  5528  0C50  1903               	skipnz
  5529  0C51  0AF5               	incf	___almod@dividend+1,f
  5530  0C52  1903               	skipnz
  5531  0C53  0AF6               	incf	___almod@dividend+2,f
  5532  0C54  1903               	skipnz
  5533  0C55  0AF7               	incf	___almod@dividend+3,f
  5534  0C56  01FA               	clrf	___almod@sign
  5535  0C57  0AFA               	incf	___almod@sign,f
  5536  0C58                     l295:	
  5537  0C58  1FF3               	btfss	___almod@divisor+3,7
  5538  0C59  2C5B               	goto	u2471
  5539  0C5A  2C5C               	goto	u2470
  5540  0C5B                     u2471:	
  5541  0C5B  2C67               	goto	l1800
  5542  0C5C                     u2470:	
  5543  0C5C                     l1798:	
  5544  0C5C  09F0               	comf	___almod@divisor,f
  5545  0C5D  09F1               	comf	___almod@divisor+1,f
  5546  0C5E  09F2               	comf	___almod@divisor+2,f
  5547  0C5F  09F3               	comf	___almod@divisor+3,f
  5548  0C60  0AF0               	incf	___almod@divisor,f
  5549  0C61  1903               	skipnz
  5550  0C62  0AF1               	incf	___almod@divisor+1,f
  5551  0C63  1903               	skipnz
  5552  0C64  0AF2               	incf	___almod@divisor+2,f
  5553  0C65  1903               	skipnz
  5554  0C66  0AF3               	incf	___almod@divisor+3,f
  5555  0C67                     l1800:	
  5556  0C67  0873               	movf	___almod@divisor+3,w
  5557  0C68  0472               	iorwf	___almod@divisor+2,w
  5558  0C69  0471               	iorwf	___almod@divisor+1,w
  5559  0C6A  0470               	iorwf	___almod@divisor,w
  5560  0C6B  1903               	skipnz
  5561  0C6C  2C6E               	goto	u2481
  5562  0C6D  2C6F               	goto	u2480
  5563  0C6E                     u2481:	
  5564  0C6E  2CB2               	goto	l1816
  5565  0C6F                     u2480:	
  5566  0C6F                     l1802:	
  5567  0C6F  01F9               	clrf	___almod@counter
  5568  0C70  0AF9               	incf	___almod@counter,f
  5569  0C71  2C7F               	goto	l1806
  5570  0C72                     l1804:	
  5571  0C72  3001               	movlw	1
  5572  0C73  00F8               	movwf	??___almod
  5573  0C74                     u2495:	
  5574  0C74  1003               	clrc
  5575  0C75  0DF0               	rlf	___almod@divisor,f
  5576  0C76  0DF1               	rlf	___almod@divisor+1,f
  5577  0C77  0DF2               	rlf	___almod@divisor+2,f
  5578  0C78  0DF3               	rlf	___almod@divisor+3,f
  5579  0C79  0BF8               	decfsz	??___almod,f
  5580  0C7A  2C74               	goto	u2495
  5581  0C7B  3001               	movlw	1
  5582  0C7C  00F8               	movwf	??___almod
  5583  0C7D  0878               	movf	??___almod,w
  5584  0C7E  07F9               	addwf	___almod@counter,f
  5585  0C7F                     l1806:	
  5586  0C7F  1FF3               	btfss	___almod@divisor+3,7
  5587  0C80  2C82               	goto	u2501
  5588  0C81  2C83               	goto	u2500
  5589  0C82                     u2501:	
  5590  0C82  2C72               	goto	l1804
  5591  0C83                     u2500:	
  5592  0C83                     l1808:	
  5593  0C83  0873               	movf	___almod@divisor+3,w
  5594  0C84  0277               	subwf	___almod@dividend+3,w
  5595  0C85  1D03               	skipz
  5596  0C86  2C91               	goto	u2515
  5597  0C87  0872               	movf	___almod@divisor+2,w
  5598  0C88  0276               	subwf	___almod@dividend+2,w
  5599  0C89  1D03               	skipz
  5600  0C8A  2C91               	goto	u2515
  5601  0C8B  0871               	movf	___almod@divisor+1,w
  5602  0C8C  0275               	subwf	___almod@dividend+1,w
  5603  0C8D  1D03               	skipz
  5604  0C8E  2C91               	goto	u2515
  5605  0C8F  0870               	movf	___almod@divisor,w
  5606  0C90  0274               	subwf	___almod@dividend,w
  5607  0C91                     u2515:	
  5608  0C91  1C03               	skipc
  5609  0C92  2C94               	goto	u2511
  5610  0C93  2C95               	goto	u2510
  5611  0C94                     u2511:	
  5612  0C94  2CA3               	goto	l1812
  5613  0C95                     u2510:	
  5614  0C95                     l1810:	
  5615  0C95  0870               	movf	___almod@divisor,w
  5616  0C96  02F4               	subwf	___almod@dividend,f
  5617  0C97  0871               	movf	___almod@divisor+1,w
  5618  0C98  1C03               	skipc
  5619  0C99  0F71               	incfsz	___almod@divisor+1,w
  5620  0C9A  02F5               	subwf	___almod@dividend+1,f
  5621  0C9B  0872               	movf	___almod@divisor+2,w
  5622  0C9C  1C03               	skipc
  5623  0C9D  0F72               	incfsz	___almod@divisor+2,w
  5624  0C9E  02F6               	subwf	___almod@dividend+2,f
  5625  0C9F  0873               	movf	___almod@divisor+3,w
  5626  0CA0  1C03               	skipc
  5627  0CA1  0F73               	incfsz	___almod@divisor+3,w
  5628  0CA2  02F7               	subwf	___almod@dividend+3,f
  5629  0CA3                     l1812:	
  5630  0CA3  3001               	movlw	1
  5631  0CA4                     u2525:	
  5632  0CA4  1003               	clrc
  5633  0CA5  0CF3               	rrf	___almod@divisor+3,f
  5634  0CA6  0CF2               	rrf	___almod@divisor+2,f
  5635  0CA7  0CF1               	rrf	___almod@divisor+1,f
  5636  0CA8  0CF0               	rrf	___almod@divisor,f
  5637  0CA9  3EFF               	addlw	-1
  5638  0CAA  1D03               	skipz
  5639  0CAB  2CA4               	goto	u2525
  5640  0CAC                     l1814:	
  5641  0CAC  3001               	movlw	1
  5642  0CAD  02F9               	subwf	___almod@counter,f
  5643  0CAE  1D03               	btfss	3,2
  5644  0CAF  2CB1               	goto	u2531
  5645  0CB0  2CB2               	goto	u2530
  5646  0CB1                     u2531:	
  5647  0CB1  2C83               	goto	l1808
  5648  0CB2                     u2530:	
  5649  0CB2                     l1816:	
  5650  0CB2  087A               	movf	___almod@sign,w
  5651  0CB3  1903               	btfsc	3,2
  5652  0CB4  2CB6               	goto	u2541
  5653  0CB5  2CB7               	goto	u2540
  5654  0CB6                     u2541:	
  5655  0CB6  2CC2               	goto	l1820
  5656  0CB7                     u2540:	
  5657  0CB7                     l1818:	
  5658  0CB7  09F4               	comf	___almod@dividend,f
  5659  0CB8  09F5               	comf	___almod@dividend+1,f
  5660  0CB9  09F6               	comf	___almod@dividend+2,f
  5661  0CBA  09F7               	comf	___almod@dividend+3,f
  5662  0CBB  0AF4               	incf	___almod@dividend,f
  5663  0CBC  1903               	skipnz
  5664  0CBD  0AF5               	incf	___almod@dividend+1,f
  5665  0CBE  1903               	skipnz
  5666  0CBF  0AF6               	incf	___almod@dividend+2,f
  5667  0CC0  1903               	skipnz
  5668  0CC1  0AF7               	incf	___almod@dividend+3,f
  5669  0CC2                     l1820:	
  5670  0CC2  0877               	movf	___almod@dividend+3,w
  5671  0CC3  00F3               	movwf	?___almod+3
  5672  0CC4  0876               	movf	___almod@dividend+2,w
  5673  0CC5  00F2               	movwf	?___almod+2
  5674  0CC6  0875               	movf	___almod@dividend+1,w
  5675  0CC7  00F1               	movwf	?___almod+1
  5676  0CC8  0874               	movf	___almod@dividend,w
  5677  0CC9  00F0               	movwf	?___almod
  5678  0CCA                     l305:	
  5679  0CCA  0008               	return
  5680  0CCB                     __end_of___almod:	
  5681                           
  5682                           	psect	text19
  5683  0CCB                     __ptext19:	
  5684 ;; *************** function ___aldiv *****************
  5685 ;; Defined at:
  5686 ;;		line 5 in file "C:\Program Files (x86)\Microchip\xc8\v2.10\pic\sources\c90\common\aldiv.c"
  5687 ;; Parameters:    Size  Location     Type
  5688 ;;  divisor         4    0[COMMON] long 
  5689 ;;  dividend        4    4[COMMON] long 
  5690 ;; Auto vars:     Size  Location     Type
  5691 ;;  quotient        4    2[BANK0 ] long 
  5692 ;;  sign            1    1[BANK0 ] unsigned char 
  5693 ;;  counter         1    0[BANK0 ] unsigned char 
  5694 ;; Return value:  Size  Location     Type
  5695 ;;                  4    0[COMMON] long 
  5696 ;; Registers used:
  5697 ;;		wreg, status,2, status,0
  5698 ;; Tracked objects:
  5699 ;;		On entry : 0/0
  5700 ;;		On exit  : 0/0
  5701 ;;		Unchanged: 0/0
  5702 ;; Data sizes:     COMMON   BANK0   BANK1   BANK3   BANK2
  5703 ;;      Params:         8       0       0       0       0
  5704 ;;      Locals:         0       6       0       0       0
  5705 ;;      Temps:          1       0       0       0       0
  5706 ;;      Totals:         9       6       0       0       0
  5707 ;;Total ram usage:       15 bytes
  5708 ;; Hardware stack levels used:    1
  5709 ;; This function calls:
  5710 ;;		Nothing
  5711 ;; This function is called by:
  5712 ;;		_ftoa
  5713 ;; This function uses a non-reentrant model
  5714 ;;
  5715                           
  5716                           
  5717                           ;psect for function ___aldiv
  5718  0CCB                     ___aldiv:	
  5719  0CCB                     l1752:	
  5720                           ;incstack = 0
  5721                           ; Regs used in ___aldiv: [wreg+status,2+status,0]
  5722                           
  5723  0CCB  1283               	bcf	3,5	;RP0=0, select bank0
  5724  0CCC  1303               	bcf	3,6	;RP1=0, select bank0
  5725  0CCD  01A1               	clrf	___aldiv@sign
  5726  0CCE                     l1754:	
  5727  0CCE  1FF3               	btfss	___aldiv@divisor+3,7
  5728  0CCF  2CD1               	goto	u2361
  5729  0CD0  2CD2               	goto	u2360
  5730  0CD1                     u2361:	
  5731  0CD1  2CDF               	goto	l282
  5732  0CD2                     u2360:	
  5733  0CD2                     l1756:	
  5734  0CD2  09F0               	comf	___aldiv@divisor,f
  5735  0CD3  09F1               	comf	___aldiv@divisor+1,f
  5736  0CD4  09F2               	comf	___aldiv@divisor+2,f
  5737  0CD5  09F3               	comf	___aldiv@divisor+3,f
  5738  0CD6  0AF0               	incf	___aldiv@divisor,f
  5739  0CD7  1903               	skipnz
  5740  0CD8  0AF1               	incf	___aldiv@divisor+1,f
  5741  0CD9  1903               	skipnz
  5742  0CDA  0AF2               	incf	___aldiv@divisor+2,f
  5743  0CDB  1903               	skipnz
  5744  0CDC  0AF3               	incf	___aldiv@divisor+3,f
  5745  0CDD  01A1               	clrf	___aldiv@sign
  5746  0CDE  0AA1               	incf	___aldiv@sign,f
  5747  0CDF                     l282:	
  5748  0CDF  1FF7               	btfss	___aldiv@dividend+3,7
  5749  0CE0  2CE2               	goto	u2371
  5750  0CE1  2CE3               	goto	u2370
  5751  0CE2                     u2371:	
  5752  0CE2  2CF2               	goto	l1762
  5753  0CE3                     u2370:	
  5754  0CE3                     l1758:	
  5755  0CE3  09F4               	comf	___aldiv@dividend,f
  5756  0CE4  09F5               	comf	___aldiv@dividend+1,f
  5757  0CE5  09F6               	comf	___aldiv@dividend+2,f
  5758  0CE6  09F7               	comf	___aldiv@dividend+3,f
  5759  0CE7  0AF4               	incf	___aldiv@dividend,f
  5760  0CE8  1903               	skipnz
  5761  0CE9  0AF5               	incf	___aldiv@dividend+1,f
  5762  0CEA  1903               	skipnz
  5763  0CEB  0AF6               	incf	___aldiv@dividend+2,f
  5764  0CEC  1903               	skipnz
  5765  0CED  0AF7               	incf	___aldiv@dividend+3,f
  5766  0CEE                     l1760:	
  5767  0CEE  3001               	movlw	1
  5768  0CEF  00F8               	movwf	??___aldiv
  5769  0CF0  0878               	movf	??___aldiv,w
  5770  0CF1  06A1               	xorwf	___aldiv@sign,f
  5771  0CF2                     l1762:	
  5772  0CF2  3000               	movlw	0
  5773  0CF3  00A5               	movwf	___aldiv@quotient+3
  5774  0CF4  3000               	movlw	0
  5775  0CF5  00A4               	movwf	___aldiv@quotient+2
  5776  0CF6  3000               	movlw	0
  5777  0CF7  00A3               	movwf	___aldiv@quotient+1
  5778  0CF8  3000               	movlw	0
  5779  0CF9  00A2               	movwf	___aldiv@quotient
  5780  0CFA                     l1764:	
  5781  0CFA  0873               	movf	___aldiv@divisor+3,w
  5782  0CFB  0472               	iorwf	___aldiv@divisor+2,w
  5783  0CFC  0471               	iorwf	___aldiv@divisor+1,w
  5784  0CFD  0470               	iorwf	___aldiv@divisor,w
  5785  0CFE  1903               	skipnz
  5786  0CFF  2D01               	goto	u2381
  5787  0D00  2D02               	goto	u2380
  5788  0D01                     u2381:	
  5789  0D01  2D4F               	goto	l1784
  5790  0D02                     u2380:	
  5791  0D02                     l1766:	
  5792  0D02  01A0               	clrf	___aldiv@counter
  5793  0D03  0AA0               	incf	___aldiv@counter,f
  5794  0D04  2D12               	goto	l1770
  5795  0D05                     l1768:	
  5796  0D05  3001               	movlw	1
  5797  0D06  00F8               	movwf	??___aldiv
  5798  0D07                     u2395:	
  5799  0D07  1003               	clrc
  5800  0D08  0DF0               	rlf	___aldiv@divisor,f
  5801  0D09  0DF1               	rlf	___aldiv@divisor+1,f
  5802  0D0A  0DF2               	rlf	___aldiv@divisor+2,f
  5803  0D0B  0DF3               	rlf	___aldiv@divisor+3,f
  5804  0D0C  0BF8               	decfsz	??___aldiv,f
  5805  0D0D  2D07               	goto	u2395
  5806  0D0E  3001               	movlw	1
  5807  0D0F  00F8               	movwf	??___aldiv
  5808  0D10  0878               	movf	??___aldiv,w
  5809  0D11  07A0               	addwf	___aldiv@counter,f
  5810  0D12                     l1770:	
  5811  0D12  1FF3               	btfss	___aldiv@divisor+3,7
  5812  0D13  2D15               	goto	u2401
  5813  0D14  2D16               	goto	u2400
  5814  0D15                     u2401:	
  5815  0D15  2D05               	goto	l1768
  5816  0D16                     u2400:	
  5817  0D16                     l1772:	
  5818  0D16  3001               	movlw	1
  5819  0D17  00F8               	movwf	??___aldiv
  5820  0D18                     u2415:	
  5821  0D18  1003               	clrc
  5822  0D19  0DA2               	rlf	___aldiv@quotient,f
  5823  0D1A  0DA3               	rlf	___aldiv@quotient+1,f
  5824  0D1B  0DA4               	rlf	___aldiv@quotient+2,f
  5825  0D1C  0DA5               	rlf	___aldiv@quotient+3,f
  5826  0D1D  0BF8               	decfsz	??___aldiv,f
  5827  0D1E  2D18               	goto	u2415
  5828  0D1F                     l1774:	
  5829  0D1F  0873               	movf	___aldiv@divisor+3,w
  5830  0D20  0277               	subwf	___aldiv@dividend+3,w
  5831  0D21  1D03               	skipz
  5832  0D22  2D2D               	goto	u2425
  5833  0D23  0872               	movf	___aldiv@divisor+2,w
  5834  0D24  0276               	subwf	___aldiv@dividend+2,w
  5835  0D25  1D03               	skipz
  5836  0D26  2D2D               	goto	u2425
  5837  0D27  0871               	movf	___aldiv@divisor+1,w
  5838  0D28  0275               	subwf	___aldiv@dividend+1,w
  5839  0D29  1D03               	skipz
  5840  0D2A  2D2D               	goto	u2425
  5841  0D2B  0870               	movf	___aldiv@divisor,w
  5842  0D2C  0274               	subwf	___aldiv@dividend,w
  5843  0D2D                     u2425:	
  5844  0D2D  1C03               	skipc
  5845  0D2E  2D30               	goto	u2421
  5846  0D2F  2D31               	goto	u2420
  5847  0D30                     u2421:	
  5848  0D30  2D40               	goto	l1780
  5849  0D31                     u2420:	
  5850  0D31                     l1776:	
  5851  0D31  0870               	movf	___aldiv@divisor,w
  5852  0D32  02F4               	subwf	___aldiv@dividend,f
  5853  0D33  0871               	movf	___aldiv@divisor+1,w
  5854  0D34  1C03               	skipc
  5855  0D35  0F71               	incfsz	___aldiv@divisor+1,w
  5856  0D36  02F5               	subwf	___aldiv@dividend+1,f
  5857  0D37  0872               	movf	___aldiv@divisor+2,w
  5858  0D38  1C03               	skipc
  5859  0D39  0F72               	incfsz	___aldiv@divisor+2,w
  5860  0D3A  02F6               	subwf	___aldiv@dividend+2,f
  5861  0D3B  0873               	movf	___aldiv@divisor+3,w
  5862  0D3C  1C03               	skipc
  5863  0D3D  0F73               	incfsz	___aldiv@divisor+3,w
  5864  0D3E  02F7               	subwf	___aldiv@dividend+3,f
  5865  0D3F                     l1778:	
  5866  0D3F  1422               	bsf	___aldiv@quotient,0
  5867  0D40                     l1780:	
  5868  0D40  3001               	movlw	1
  5869  0D41                     u2435:	
  5870  0D41  1003               	clrc
  5871  0D42  0CF3               	rrf	___aldiv@divisor+3,f
  5872  0D43  0CF2               	rrf	___aldiv@divisor+2,f
  5873  0D44  0CF1               	rrf	___aldiv@divisor+1,f
  5874  0D45  0CF0               	rrf	___aldiv@divisor,f
  5875  0D46  3EFF               	addlw	-1
  5876  0D47  1D03               	skipz
  5877  0D48  2D41               	goto	u2435
  5878  0D49                     l1782:	
  5879  0D49  3001               	movlw	1
  5880  0D4A  02A0               	subwf	___aldiv@counter,f
  5881  0D4B  1D03               	btfss	3,2
  5882  0D4C  2D4E               	goto	u2441
  5883  0D4D  2D4F               	goto	u2440
  5884  0D4E                     u2441:	
  5885  0D4E  2D16               	goto	l1772
  5886  0D4F                     u2440:	
  5887  0D4F                     l1784:	
  5888  0D4F  0821               	movf	___aldiv@sign,w
  5889  0D50  1903               	btfsc	3,2
  5890  0D51  2D53               	goto	u2451
  5891  0D52  2D54               	goto	u2450
  5892  0D53                     u2451:	
  5893  0D53  2D5F               	goto	l1788
  5894  0D54                     u2450:	
  5895  0D54                     l1786:	
  5896  0D54  09A2               	comf	___aldiv@quotient,f
  5897  0D55  09A3               	comf	___aldiv@quotient+1,f
  5898  0D56  09A4               	comf	___aldiv@quotient+2,f
  5899  0D57  09A5               	comf	___aldiv@quotient+3,f
  5900  0D58  0AA2               	incf	___aldiv@quotient,f
  5901  0D59  1903               	skipnz
  5902  0D5A  0AA3               	incf	___aldiv@quotient+1,f
  5903  0D5B  1903               	skipnz
  5904  0D5C  0AA4               	incf	___aldiv@quotient+2,f
  5905  0D5D  1903               	skipnz
  5906  0D5E  0AA5               	incf	___aldiv@quotient+3,f
  5907  0D5F                     l1788:	
  5908  0D5F  0825               	movf	___aldiv@quotient+3,w
  5909  0D60  00F3               	movwf	?___aldiv+3
  5910  0D61  0824               	movf	___aldiv@quotient+2,w
  5911  0D62  00F2               	movwf	?___aldiv+2
  5912  0D63  0823               	movf	___aldiv@quotient+1,w
  5913  0D64  00F1               	movwf	?___aldiv+1
  5914  0D65  0822               	movf	___aldiv@quotient,w
  5915  0D66  00F0               	movwf	?___aldiv
  5916  0D67                     l292:	
  5917  0D67  0008               	return
  5918  0D68                     __end_of___aldiv:	
  5919                           
  5920                           	psect	text20
  5921  0A69                     __ptext20:	
  5922 ;; *************** function _PIN_MANAGER_Initialize *****************
  5923 ;; Defined at:
  5924 ;;		line 9 in file "pin_manager.c"
  5925 ;; Parameters:    Size  Location     Type
  5926 ;;		None
  5927 ;; Auto vars:     Size  Location     Type
  5928 ;;		None
  5929 ;; Return value:  Size  Location     Type
  5930 ;;                  1    wreg      void 
  5931 ;; Registers used:
  5932 ;;		wreg, status,2, status,0
  5933 ;; Tracked objects:
  5934 ;;		On entry : 0/0
  5935 ;;		On exit  : 0/0
  5936 ;;		Unchanged: 0/0
  5937 ;; Data sizes:     COMMON   BANK0   BANK1   BANK3   BANK2
  5938 ;;      Params:         0       0       0       0       0
  5939 ;;      Locals:         0       0       0       0       0
  5940 ;;      Temps:          0       0       0       0       0
  5941 ;;      Totals:         0       0       0       0       0
  5942 ;;Total ram usage:        0 bytes
  5943 ;; Hardware stack levels used:    1
  5944 ;; This function calls:
  5945 ;;		Nothing
  5946 ;; This function is called by:
  5947 ;;		_main
  5948 ;; This function uses a non-reentrant model
  5949 ;;
  5950                           
  5951                           
  5952                           ;psect for function _PIN_MANAGER_Initialize
  5953  0A69                     _PIN_MANAGER_Initialize:	
  5954  0A69                     l1474:	
  5955                           ;incstack = 0
  5956                           ; Regs used in _PIN_MANAGER_Initialize: [wreg+status,2+status,0]
  5957                           
  5958                           
  5959                           ;pin_manager.c: 14: ADCON1bits.PCFG = 0b0110;
  5960  0A69  1683               	bsf	3,5	;RP0=1, select bank1
  5961  0A6A  1303               	bcf	3,6	;RP1=0, select bank1
  5962  0A6B  081F               	movf	31,w	;volatile
  5963  0A6C  39F0               	andlw	-16
  5964  0A6D  3806               	iorlw	6
  5965  0A6E  009F               	movwf	31	;volatile
  5966  0A6F                     l1476:	
  5967                           
  5968                           ;pin_manager.c: 16:     TRISE = 0x0E;
  5969  0A6F  300E               	movlw	14
  5970  0A70  0089               	movwf	9	;volatile
  5971  0A71                     l1478:	
  5972                           
  5973                           ;pin_manager.c: 18:     TRISA = 0x1B;
  5974  0A71  301B               	movlw	27
  5975  0A72  0085               	movwf	5	;volatile
  5976  0A73                     l1480:	
  5977                           
  5978                           ;pin_manager.c: 20:     TRISB = 0xE0;
  5979  0A73  30E0               	movlw	224
  5980  0A74  0086               	movwf	6	;volatile
  5981  0A75                     l1482:	
  5982                           
  5983                           ;pin_manager.c: 22:     TRISC = 0x00;
  5984  0A75  0187               	clrf	7	;volatile
  5985  0A76                     l1484:	
  5986                           
  5987                           ;pin_manager.c: 24:     TRISD = 0x00;
  5988  0A76  0188               	clrf	8	;volatile
  5989  0A77                     l76:	
  5990  0A77  0008               	return
  5991  0A78                     __end_of_PIN_MANAGER_Initialize:	
  5992  007E                     btemp	set	126	;btemp
  5993  007E                     wtemp0	set	126


Data Sizes:
    Strings     0
    Constant    44
    Data        0
    BSS         1
    Persistent  0
    Stack       0

Auto Spaces:
    Space          Size  Autos    Used
    COMMON           14     14      14
    BANK0            80     55      56
    BANK1            80      0       0
    BANK3            96      0       0
    BANK2            96      0       0

Pointer List with Targets:

    sp__strcat	PTR unsigned char  size(1) Largest target is 0

    sp__strcpy	PTR unsigned char  size(1) Largest target is 0

    ftoa@p1	PTR unsigned char  size(1) Largest target is 5
		 -> lcd_put_float@lcd_float_ans(BANK0[5]), 

    ftoa@p	PTR unsigned char  size(1) Largest target is 5
		 -> lcd_put_float@lcd_float_ans(BANK0[5]), 

    ftoa@buf	PTR unsigned char  size(1) Largest target is 5
		 -> lcd_put_float@lcd_float_ans(BANK0[5]), 

    ftoa@ptr	PTR unsigned char  size(1) Largest target is 5
		 -> lcd_put_float@lcd_float_ans(BANK0[5]), 

    sp__ftoa	PTR unsigned char  size(1) Largest target is 5
		 -> lcd_put_float@lcd_float_ans(BANK0[5]), 

    lcd_puts@s	PTR const unsigned char  size(1) Largest target is 5
		 -> lcd_put_float@lcd_float_ans(BANK0[5]), 


Critical Paths under _main in COMMON

    _lcd_start->_lcd_init
    _lcd_init->_lcd_clear
    _lcd_clear->_lcd_write
    _lcd_puts->_lcd_write
    _lcd_goto->_lcd_write
    _ftoa->___flmul
    _ftoa->___xxtofl
    ___flsub->___xxtofl
    ___flmul->__Umul8_16

Critical Paths under _main in BANK0

    _main->_System_Test
    _System_Test->_lcd_put_float
    _lcd_put_float->_ftoa
    _ftoa->___flmul
    ___flsub->___fladd

Critical Paths under _main in BANK1

    None.

Critical Paths under _main in BANK3

    None.

Critical Paths under _main in BANK2

    None.

Call Graph Tables:

 ---------------------------------------------------------------------------------
 (Depth) Function   	        Calls       Base Space   Used Autos Params    Refs
 ---------------------------------------------------------------------------------
 (0) _main                                                 0     0      0   12355
             _PIN_MANAGER_Initialize
                        _System_Test
                          _lcd_start
 ---------------------------------------------------------------------------------
 (1) _lcd_start                                            0     0      0      89
                          _lcd_clear
                           _lcd_init
 ---------------------------------------------------------------------------------
 (2) _lcd_init                                             3     3      0      67
                                              4 COMMON     3     3      0
                          _lcd_clear
                          _lcd_write
 ---------------------------------------------------------------------------------
 (3) _lcd_clear                                            2     2      0      22
                                              2 COMMON     2     2      0
                          _lcd_write
 ---------------------------------------------------------------------------------
 (1) _System_Test                                          3     3      0   12266
                                             52 BANK0      3     3      0
                      _lcd_put_float
 ---------------------------------------------------------------------------------
 (2) _lcd_put_float                                       11     6      5   12266
                                             41 BANK0     11     6      5
                               _ftoa
                           _lcd_goto
                           _lcd_puts
 ---------------------------------------------------------------------------------
 (3) _lcd_puts                                             2     2      0     100
                                              2 COMMON     2     2      0
                          _lcd_write
 ---------------------------------------------------------------------------------
 (3) _lcd_goto                                             1     1      0      44
                                              2 COMMON     1     1      0
                          _lcd_write
 ---------------------------------------------------------------------------------
 (3) _lcd_write                                            2     2      0      22
                                              0 COMMON     2     2      0
 ---------------------------------------------------------------------------------
 (3) _ftoa                                                20    13      7   11732
                                             21 BANK0     20    13      7
                            ___aldiv
                            ___almod
                            ___fladd
                             ___flge
                            ___flmul
                            ___flneg
                            ___flsub
                            ___fltol
                           ___xxtofl
 ---------------------------------------------------------------------------------
 (4) ___xxtofl                                            14    10      4     474
                                              0 COMMON    14    10      4
 ---------------------------------------------------------------------------------
 (4) ___fltol                                             11     7      4     381
                                              0 COMMON    11     7      4
 ---------------------------------------------------------------------------------
 (4) ___flsub                                              8     0      8    2637
                                              8 BANK0      8     0      8
                            ___fladd
                           ___xxtofl (ARG)
 ---------------------------------------------------------------------------------
 (5) ___fladd                                             20    12      8    2288
                                              0 COMMON    12     4      8
                                              0 BANK0      8     8      0
 ---------------------------------------------------------------------------------
 (4) ___flneg                                              4     0      4     121
                                              0 COMMON     4     0      4
 ---------------------------------------------------------------------------------
 (4) ___flmul                                             26    18      8    2417
                                              9 COMMON     5     5      0
                                              0 BANK0     21    13      8
                          __Umul8_16
 ---------------------------------------------------------------------------------
 (5) __Umul8_16                                            9     7      2     799
                                              0 COMMON     9     7      2
 ---------------------------------------------------------------------------------
 (4) ___flge                                              12     4      8    1246
                                              0 COMMON    12     4      8
 ---------------------------------------------------------------------------------
 (4) ___almod                                             11     3      8     448
                                              0 COMMON    11     3      8
 ---------------------------------------------------------------------------------
 (4) ___aldiv                                             15     7      8     452
                                              0 COMMON     9     1      8
                                              0 BANK0      6     6      0
 ---------------------------------------------------------------------------------
 (1) _PIN_MANAGER_Initialize                               0     0      0       0
 ---------------------------------------------------------------------------------
 Estimated maximum stack depth 5
 ---------------------------------------------------------------------------------

 Call Graph Graphs:

 _main (ROOT)
   _PIN_MANAGER_Initialize
   _System_Test
     _lcd_put_float
       _ftoa
         ___aldiv
         ___almod
         ___fladd
         ___flge
         ___flmul
           __Umul8_16
         ___flneg
         ___flsub
           ___fladd
           ___xxtofl (ARG)
         ___fltol
         ___xxtofl
       _lcd_goto
         _lcd_write
       _lcd_puts
         _lcd_write
   _lcd_start
     _lcd_clear
       _lcd_write
     _lcd_init
       _lcd_clear
         _lcd_write
       _lcd_write

 Address spaces:
Name               Size   Autos  Total    Cost      Usage
BITCOMMON            E      0       0       0        0.0%
EEDATA             100      0       0       0        0.0%
NULL                 0      0       0       0        0.0%
CODE                 0      0       0       0        0.0%
COMMON               E      E       E       1      100.0%
BITSFR0              0      0       0       1        0.0%
SFR0                 0      0       0       1        0.0%
BITSFR1              0      0       0       2        0.0%
SFR1                 0      0       0       2        0.0%
STACK                0      0       0       2        0.0%
ABS                  0      0      46       3        0.0%
BITBANK0            50      0       0       4        0.0%
BITSFR3              0      0       0       4        0.0%
SFR3                 0      0       0       4        0.0%
BANK0               50     37      38       5       70.0%
BITSFR2              0      0       0       5        0.0%
SFR2                 0      0       0       5        0.0%
BITBANK1            50      0       0       6        0.0%
BANK1               50      0       0       7        0.0%
BITBANK3            60      0       0       8        0.0%
BANK3               60      0       0       9        0.0%
BITBANK2            60      0       0      10        0.0%
BANK2               60      0       0      11        0.0%
DATA                 0      0      46      12        0.0%


Microchip Technology PIC Macro Assembler V2.10 build 88905656 
Symbol Table                                                                                   Mon Apr 27 23:02:48 2020

                              pc 0002                      __CFG_CP$OFF 0000                               l23 0BCB  
                             l32 0AB7                               l41 005B                               l26 0A8A  
                             l44 0A5C                               l38 0A68                               l47 0B00  
                             l76 0A77                               l88 0B5A                               l89 0B68  
                             fsr 0004              __Umul8_16@word_mpld 0076                      __CFG_LVP$ON 0000  
                            l128 0497                              l305 0CCA                              l410 0C30  
                            l403 0C45                              l413 0C45                              l510 0DCB  
                            l282 0CDF                              l514 0E74                              l531 0F45  
                            l523 0FFF                              l292 0D67                              l612 0764  
                            l516 0E49                              l541 0F8D                              l606 07F8  
                            l295 0C58                              l391 0078                              l535 0F6B  
                            l552 0FF1                              l544 0FCD                              l553 0FFF  
                            l394 00E4                              l618 07EC                              l650 0165  
                            l395 00FD                              l556 0ADB                              l644 0120  
                            l646 01B7                              l399 0A51                              l657 0181  
                            l658 018D                              l684 0B15                              l686 0B27  
                            _RB1 0031                              _RB2 0032                              _RB3 0033  
                            _RB4 0034                              _RC4 003C                              _RC5 003D  
                   __CFG_CPD$OFF 0000                              fsr0 0004                              indf 0000  
                    lcd_goto@pos 0072                     __CFG_FOSC$HS 0000                     ___flmul@aexp 002D  
                   ___flmul@bexp 002E                     ___flmul@sign 0028                     ___flmul@temp 0033  
                   ___flmul@prod 002F                   ?_lcd_put_float 0049                     ___fltol@exp1 007A  
                           l2010 0799                             l2002 0769                             l2020 07D0  
                           l2004 076E                             l2012 079F                             l2100 01CB  
                           l2030 07F0                             l2022 07D2                             l2014 07AC  
                           l2006 077C                             l2110 0210                             l2102 01D1  
                           l2024 07E0                             l2016 07B7                             l2008 0780  
                           l2040 0118                             l2120 0258                             l2112 0216  
                           l2104 01EC                             l2200 000C                             l2026 07E4  
                           l2018 07C6                             l2050 0143                             l2042 0128  
                           l2034 00FF                             l2130 02B7                             l2122 0273  
                           l2114 022F                             l2106 0205                             l2210 0028  
                           l2202 000C                             l2028 07E5                             l2060 0177  
                           l2052 014A                             l2036 0104                             l2140 02EA  
                           l2132 02BE                             l2124 027A                             l2116 0236  
                           l2108 020C                             l2220 0043                             l2212 002B  
                           l2204 000F                             l2070 01AA                             l2062 017B  
                           l2054 014E                             l2046 0131                             l2038 0108  
                           l2150 0382                             l2142 032D                             l2134 02D9  
                           l2126 0295                             l2118 0251                             l2230 0ADC  
                           l2222 0044                             l2214 0033                             l2206 001D  
                           l1600 0E2D                             l1520 0D6F                             l2072 01AE  
                           l2064 0185                             l2056 015C                             l2048 0136  
                           l2160 03CE                             l2152 0387                             l2144 0344  
                           l2136 02E0                             l2128 029C                             l2232 0AE4  
                           l2240 0B3A                             l2080 0A7B                             l2224 004A  
                           l2216 0036                             l2208 001E                             l1610 0E5F  
                           l1602 0E4D                             l1530 0D84                             l1522 0D75  
                           l2074 01AF                             l2066 018F                             l2058 016C  
                           l2170 03F2                             l2162 03D6                             l2154 038C  
                           l2146 0373                             l2138 02E4                             l2090 0AAF  
                           l2242 0B48                             l2082 0A81                             l2226 0050  
                           l2218 0042                             l2234 0A52                             l2250 0A8B  
                           l1700 0FE4                             l1612 0E6A                             l1604 0E58  
                           l1540 0D9C                             l1532 0D8C                             l1524 0D79  
                           l2068 01A5                             l2180 040D                             l2164 03DB  
                           l2172 03F6                             l2156 03AB                             l2148 037B  
                           l2092 0A5E                             l2084 0A9F                             l2244 0B57  
                           l2236 0B28                             l2228 0055                             l2252 0A95  
                           l1710 0FFE                             l1702 0FE5                             l1630 0EB0  
                           l1622 0E86                             l1606 0E5A                             l1614 0E6E  
                           l1550 0DAE                             l1542 0DA2                             l1534 0D8D  
                           l1526 0D7A                             l1518 0D68                             l2190 0450  
                           l2182 0412                             l2174 03FC                             l2166 03E4  
                           l2158 03AF                             l2094 0A61                             l2086 0AA3  
                           l2238 0B37                             l2078 0A78                             l1480 0A73  
                           l1800 0C67                             l1720 0B1E                             l1712 0B02  
                           l1704 0FE9                             l1632 0EB2                             l1624 0E9D  
                           l1616 0E78                             l1640 0EC7                             l1608 0E5E  
                           l1552 0DB3                             l1560 0DC3                             l1544 0DA3  
                           l1528 0D7F                             l1536 0D8F                             l2184 0431  
                           l2192 0484                             l2168 03EC                             l2176 0400  
                           l2096 01B8                             l2088 0AAB                             l1482 0A75  
                           l1474 0A69                             l1810 0C95                             l1802 0C6F  
                           l1722 0B23                             l1714 0B04                             l1706 0FEB  
                           l1642 0EDD                             l1650 0F37                             l1634 0EB6  
                           l1626 0EA1                             l1618 0E7D                             l1570 0DE1  
                           l1562 0DD1                             l1554 0DB8                             l1546 0DA9  
                           l1538 0D97                             l2186 0444                             l2178 0406  
                           l2194 0492                             l2098 01BE                             l1730 0B81  
                           l1484 0A76                             l1476 0A6F                             l1820 0CC2  
                           l1812 0CA3                             l1804 0C72                             l1716 0B0B  
                           l1900 04A9                             l1708 0FFA                             l1660 0F66  
                           l1652 0F4D                             l1644 0F1D                             l1636 0EB7  
                           l1628 0EA5                             l1580 0DF5                             l1572 0DE5  
                           l1564 0DD5                             l1556 0DC0                             l1548 0DAD  
                           l2196 0496                             l2188 044C                             l1740 0BA1  
                           l1732 0B8B                             l1478 0A71                             l1814 0CAC  
                           l1806 0C7F                             l1830 0094                             l1718 0B0F  
                           l1910 04BE                             l1902 04AA                             l1670 0F79  
                           l1662 0F6A                             l1654 0F52                             l1646 0F23  
                           l1638 0EC2                             l1590 0E09                             l1582 0DF9  
                           l1574 0DE9                             l1566 0DD9                             l1558 0DC1  
                           l1750 0BCA                             l1742 0BAB                             l1734 0B95  
                           l1726 0B6A                             l1760 0CEE                             l1752 0CCB  
                           l1808 0C83                             l1816 0CB2                             l1840 00FC  
                           l1832 0098                             l1824 005C                             l1920 04D6  
                           l1912 04C6                             l1904 04AF                             l1680 0F8A  
                           l1664 0F6F                             l1672 0F7B                             l1648 0F28  
                           l1592 0E0D                             l1584 0DFD                             l1576 0DED  
                           l1568 0DDD                             l1744 0BB5                             l1736 0B9F  
                           l1728 0B75                             l1770 0D12                             l1762 0CF2  
                           l1754 0CCE                             l1818 0CB7                             l1834 00BC  
                           l1826 0070                             l1930 04F2                             l1922 04DB  
                           l1914 04CB                             l1906 04B4                             l1690 0FA9  
                           l1666 0F72                             l1658 0F5B                             l1674 0F7F  
                           l1594 0E11                             l1586 0E01                             l1578 0DF1  
                           l1746 0BBF                             l1738 0BA0                             l1780 0D40  
                           l1772 0D16                             l1764 0CFA                             l1756 0CD2  
                           l1836 00C0                             l1828 008C                             l1940 0515  
                           l1932 04F7                             l1924 04E0                             l1916 04D1  
                           l1908 04BC                             l1844 0A47                             l1692 0FC9  
                           l1684 0F92                             l1676 0F80                             l1668 0F74  
                           l1588 0E05                             l1596 0E15                             l1860 0BF5  
                           l1852 0BCC                             l1748 0BC9                             l1782 0D49  
                           l1774 0D1F                             l1766 0D02                             l1758 0CE3  
                           l1838 00FA                             l1950 05A3                             l1942 0522  
                           l1934 04FC                             l1926 04E8                             l1918 04D5  
                           l1846 0A4F                             l1694 0FD2                             l1686 0F97  
                           l1678 0F84                             l1598 0E16                             l1862 0BF6  
                           l1854 0BD7                             l1776 0D31                             l1768 0D05  
                           l1784 0D4F                             l1792 0C46                             l1960 0605  
                           l1952 05BF                             l1944 053F                             l1928 04EA  
                           l1848 0A51                             l1696 0FD7                             l1688 0FA5  
                           l1864 0BFE                             l1786 0D54                             l1778 0D3F  
                           l1794 0C47                             l1970 0695                             l1962 0622  
                           l1954 05C8                             l1946 055B                             l1938 0505  
                           l1698 0FDF                             l1890 0ABC                             l1882 0C25  
                           l1874 0C0C                             l1866 0C00                             l1858 0BE0  
                           l1788 0D5F                             l1796 0C4B                             l1980 0727  
                           l1972 06C2                             l1964 063B                             l1956 05D8  
                           l1948 0587                             l1884 0C35                             l1868 0C04  
                           l1876 0C1E                             l1798 0C5C                             l1982 0730  
                           l1990 0744                             l1974 06E8                             l1966 0658  
                           l1958 05F5                             l1894 0498                             l1886 0C3A  
                           l1992 0748                             l1984 0734                             l1976 0710  
                           l1968 0685                             l1896 049F                             l1888 0AB8  
                           l1994 0749                             l1986 0735                             l1978 0719  
                           l1898 04A5                             l1996 074D                             l1988 073E  
                           l1998 0761                             u2010 0F6A                             u2011 0F69  
                           u2100 0FBA                             u2020 0F6F                             u2021 0F6E  
                           u2005 0F5F                             u2110 0FC9                             u2030 0F79  
                           u2111 0FC8                             u2031 0F78                             u3000 0748  
                           u2120 0FD2                             u2040 0F7F                             u2200 0B7E  
                           u3001 0747                             u2121 0FD1                             u2105 0FB5  
                           u2041 0F7E                             u2201 0B7A                             u3010 074D  
                           u2130 0FD7                             u2050 0F84                             u3011 074C  
                           u2131 0FD6                             u2051 0F83                             u3020 0761  
                           u2140 0FE4                             u2060 0F8A                             u3100 0104  
                           u2300 0BB2                             u2220 0B88                             u3021 0760  
                           u2141 0FE3                             u2061 0F89                             u3101 0103  
                           u2301 0BAE                             u2221 0B84                             u3030 0768  
                           u2150 0FE9                             u2070 0F91                             u3110 0108  
                           u2214 0B81                             u3031 0767                             u2151 0FE8  
                           u2071 0F90                             u3111 0107                             u2400 0D16  
                           u3040 076E                             u2160 0FFE                             u2080 0F97  
                           u3200 0185                             u3120 0128                             u2320 0BBC  
                           u2240 0B92                             u2401 0D15                             u3041 076D  
                           u2161 0FFD                             u2081 0F96                             u3201 0184  
                           u3121 0127                             u2321 0BB8                             u2241 0B8E  
                           u2170 0B0F                             u3050 0780                             u2090 0FA9  
                           u3210 019A                             u2314 0BB5                             u2234 0B8B  
                           u2171 0B0E                             u3051 077F                             u2091 0FA8  
                           u2420 0D31                             u2500 0C83                             u3060 078F  
                           u3220 01AA                             u3140 0149                             u3300 0273  
                           u2340 0BC6                             u2260 0B9C                             u2421 0D30  
                           u2501 0C82                             u3221 01A9                             u3141 0148  
                           u3301 0272                             u2341 0BC2                             u2261 0B98  
                           u2510 0C95                             u2190 0B23                             u3070 07AC  
                           u1710 0D79                             u3230 01AE                             u3310 0295  
                           u2334 0BBF                             u2254 0B95                             u2415 0D18  
                           u2511 0C94                             u2191 0B22                             u3071 07AB  
                           u1711 0D78                             u3231 01AD                             u3215 0195  
                           u3135 013B                             u3311 0294                             u2440 0D4F  
                           u2360 0CD2                             u3080 07C6                             u1800 0E2D  
                           u1720 0D7F                             u3160 016B                             u3400 0492  
                           u3320 02B7                             u2280 0BA8                             u3240 0AB7  
                           u2441 0D4E                             u2425 0D2D                             u2361 0CD1  
                           u2601 00CF                             u2185 0B16                             u3081 07C5  
                           u3065 078A                             u1801 0E2C                             u1721 0D7E  
                           u3161 016A                             u3401 0491                             u3321 02B6  
                           u2281 0BA4                             u3241 0AB6                             u2450 0D54  
                           u2370 0CE3                             u2530 0CB2                             u2610 00FA  
                           u2602 00D0                             u3090 07E4                             u1810 0E36  
                           u1730 0D84                             u3330 02D9                             u3250 01CB  
                           u2354 0BC9                             u2274 0B9F                             u2451 0D53  
                           u2435 0D41                             u2371 0CE2                             u2531 0CB1  
                           u2515 0C91                             u2611 00F9                             u2603 00D5  
                           u3091 07E3                             u3075 07A8                             u1811 0E34  
                           u1731 0D83                             u3155 015D                             u3331 02D8  
                           u3251 01CA                             u2380 0D02                             u2540 0CB7  
                           u2460 0C4B                             u2604 00D6                             u2620 0A4F  
                           u1900 0EA1                             u1820 0E37                             u1740 0DA2  
                           u3180 017B                             u3340 02EA                             u3260 01EC  
                           u2381 0D01                             u2541 0CB6                             u2525 0CA4  
                           u2461 0C4A                             u2605 00DB                             u3085 07C2  
                           u2621 0A4E                             u1901 0EA0                             u1805 0E29  
                           u1741 0DA1                             u3181 017A                             u3341 02E9  
                           u3261 01EB                             u2470 0C5C                             u2606 00DC  
                           u2550 0070                             u1910 0EA5                             u1830 0E4D  
                           u1750 0DAD                             u2710 0C35                             u2630 0BD7  
                           u3190 0181                             u3270 0216                             u2294 0BAB  
                           u2471 0C5B                             u2615 00F6                             u2551 006F  
                           u1911 0EA4                             u1831 0E4C                             u1751 0DAC  
                           u2711 0C34                             u2631 0BD6                             u3191 0180  
                           u3175 0170                             u3271 0215                             u3255 01C7  
                           u2480 0C6F                             u2560 008C                             u2800 04FC  
                           u1920 0EB6                             u1840 0E5E                             u1760 0DB3  
                           u2720 0C3A                             u2640 0BEE                             u3360 037B  
                           u3280 022F                             u2481 0C6E                             u2561 008B  
                           u2801 04FB                             u1921 0EB5                             u1841 0E5D  
                           u1761 0DB2                             u2721 0C39                             u2705 0C27  
                           u3361 037A                             u3281 022E                             u3417 0014  
                           u2570 0098                             u2730 04A9                             u1770 0DB8  
                           u2650 0C04                             u3370 03D6                             u3290 0251  
                           u2395 0D07                             u2571 0097                             u2811 054D  
                           u2731 04A8                             u1771 0DB7                             u2651 0C03  
                           u3371 03D5                             u3355 02ED                             u3291 0250  
                           u3427 0023                             u2812 0554                             u2740 04AF  
                           u1940 0EDD                             u1860 0E74                             u1780 0DD1  
                           u2660 0C0B                             u3380 03FC                             u2581 00A7  
                           u2901 0677                             u2821 0569                             u2813 055B  
                           u2741 04AE                             u1941 0EDC                             u1861 0E73  
                           u1781 0DD0                             u2661 0C0A                             u2645 0BE9  
                           u3381 03FB                             u3437 002E                             u2590 00C0  
                           u2582 00A8                             u2902 067E                             u2822 0570  
                           u2750 04B4                             u1870 0E78                             u1790 0DD5  
                           u3390 0406                             u2495 0C74                             u2591 00BF  
                           u2583 00AD                             u2911 06A4                             u2903 0685  
                           u2831 0595                             u2823 0577                             u2751 04B3  
                           u1951 0EF6                             u1943 0ED9                             u1935 0EBB  
                           u1871 0E77                             u1855 0E63                             u1791 0DD4  
                           u3391 0405                             u3447 0039                             u2584 00AE  
                           u2920 06CE                             u2912 06AB                             u2832 059C  
                           u2760 04D5                             u1960 0F0A                             u1952 0EF7  
                           u1880 0E7D                             u2680 0C1D                             u2585 00B3  
                           u2913 06B2                             u2841 05B1                             u2833 05A3  
                           u2761 04D4                             u1961 0F0B                             u1953 0EFC  
                           u1881 0E7C                             u2681 0C1C                             u3457 0A85  
                           u2586 00B4                             u2842 05B8                             u2770 04DB  
                           u1970 0F28                             u1962 0F10                             u1954 0EFD  
                           u2690 0C24                             u2931 06DA                             u2843 05BF  
                           u2771 04DA                             u1971 0F27                             u1963 0F11  
                           u1955 0F02                             u1891 0E8F                             u2691 0C23  
                           u2675 0C0D                             u3467 0B30                             u2940 06F6  
                           u2932 06E1                             u2780 04E0                             u1980 0F4D  
                           u1956 0F03                             u1892 0E96                             u2933 06E8  
                           u2925 06C9                             u2861 05E7                             u2781 04DF  
                           u1981 0F4C                             u1893 0E9D                             u3477 0B50  
                           u2862 05EE                             u2790 04F7                             u1990 0F52  
                           u2951 0702                             u2871 0614                             u2863 05F5  
                           u2855 05C1                             u2791 04F6                             u1991 0F51  
                           u3487 0B72                             u2952 0709                             u2872 061B  
                           u2953 0710                             u2945 06F1                             u2873 0622  
                           u2891 064A                             u2980 0734                             u2892 0651  
                           u2981 0733                             u2965 0712                             u2893 0658  
                           u2885 0624                             u2975 0729                             u2995 0737  
                   __CFG_WRT$OFF 0000                             _main 0A8B                             _ftoa 01B8  
                           btemp 007E                    __CFG_BOREN$ON 0000                             start 0000  
           __size_of_System_Test 0041                    ___fltol@sign1 0079                  __end_of___aldiv 0D68  
                __end_of___almod 0CCB                  __end_of___fladd 1000                            ?_main 0070  
                          ?_ftoa 0035                  __end_of___flneg 0A52                    __CFG_WDTE$OFF 0000  
                __end_of___flmul 07F9                  __end_of___flsub 0ADC                  __end_of___fltol 0C46  
                          _PORTB 0006                            _TRISA 0085                            _TRISB 0086  
                          _TRISC 0087                            _TRISD 0088                            _TRISE 0089  
                  __CFG_PWRTE$ON 0000                            ftoa@c 0042                            ftoa@f 0035  
                          ftoa@p 0047                            pclath 000A                            status 0003  
                          wtemp0 007E                      ftoa@intPart 0043                  __initialization 07F9  
                   __end_of_main 0A9E                     __end_of_ftoa 0498                           ??_main 007E  
                         ??_ftoa 003C                  ??_lcd_put_float 004E                 __end_of___xxtofl 01B8  
               __end_of_lcd_init 005C                 __end_of_lcd_goto 0A69                           ___flge 005C  
               __end_of_lcd_puts 0AB8                        ??___aldiv 0078                        ??___almod 0078  
                      ??___fladd 0020                        ??___flneg 0074                        ??___flmul 0079  
                      ??___flsub 007E                        ??___fltol 0074                           ftoa@p1 0041  
             __size_of__Umul8_16 0027                 __end_of_rounders 0832                       ___flge@ff1 0070  
                     ___flge@ff2 0074                     ___xxtofl@arg 007A                     ___xxtofl@exp 0079  
                   ___xxtofl@val 0070          __end_of__initialization 07FC                       ___flneg@f1 0070  
                     ___fltol@f1 0070                   __pcstackCOMMON 0070               __size_of_lcd_clear 0013  
             __size_of_lcd_start 000B               __size_of_lcd_write 0063                       __pbssBANK0 0057  
              __end_of__Umul8_16 0B28                       __pmaintext 0A8B                          ?___flge 0070  
                      ?___xxtofl 0070                        ?_lcd_init 0070                        ?_lcd_goto 0070  
                      ?_lcd_puts 0070                       __stringtab 0800                    ??_System_Test 0054  
              __end_of_lcd_clear 0A8B                          ___aldiv 0CCB                  __size_of___flge 00A2  
                        ___almod 0C46                          ___fladd 0D68                __end_of_lcd_start 0A5D  
                        ___flneg 0A47                          ___flmul 0498                          ___flsub 0AB8  
                        ___fltol 0BCC                __end_of_lcd_write 0BCC                          __ptext1 0A52  
                        __ptext2 000C                          __ptext3 0A78                          __ptext4 0B28  
                        __ptext5 0ADC                          __ptext6 0A9E                          __ptext7 0A5D  
                        __ptext8 0B69                          __ptext9 01B8                       ??___xxtofl 0074  
               ___aldiv@dividend 0074         ??_PIN_MANAGER_Initialize 0070                       ??_lcd_init 0074  
                     ??_lcd_goto 0072                       ??_lcd_puts 0072             end_of_initialization 07FC  
                        ftoa@buf 0039                          ftoa@ptr 0048       lcd_put_float@lcd_float_ans 004F  
      lcd_put_float@lcd_position 004D                 ___aldiv@quotient 0022              __end_of_System_Test 0B69  
                      _PORTAbits 0005                      ___fladd@grs 007B                    ___xxtofl@sign 0078  
          __end_of_lcd_put_float 0B01                      ___flmul@grs 0029                       lcd_write@c 0071  
                  ftoa@precision 003A                   __end_of___flge 00FE              start_initialization 07F9  
__size_of_PIN_MANAGER_Initialize 000F                      _System_Test 0B28                         ??___flge 0078  
                      __Umul8_16 0B01                        ___fladd@a 0074                        ___fladd@b 0070  
                      ___flmul@a 0024                        ___flmul@b 0020                        ___flsub@a 0028  
                      ___flsub@b 002C                        ___latbits 0002                    __pcstackBANK0 0020  
              __size_of___xxtofl 00BA                __size_of_lcd_init 0050                __size_of_lcd_goto 000C  
              __size_of_lcd_puts 001A           _PIN_MANAGER_Initialize 0A69                         ?___aldiv 0070  
                       ?___almod 0070                         ?___fladd 0070                         ?___flneg 0070  
                       ?___flmul 0020                         ?___flsub 0028                         ?___fltol 0070  
                     ?__Umul8_16 0070                        _lcd_clear 0A78                 ___almod@dividend 0074  
                      __pstrings 0800                        _lcd_start 0A52                        _lcd_write 0B69  
                ___aldiv@divisor 0070                  ___aldiv@counter 0020                       ?_lcd_clear 0070  
                     ?_lcd_start 0070                      __stringbase 0805                       _ADCON1bits 009F  
                     ?_lcd_write 0070                        lcd_puts@s 0073                 lcd_put_float@val 0049  
                    ??__Umul8_16 0072                 __size_of___aldiv 009D                 __size_of___almod 0085  
               __size_of___fladd 0298                 __size_of___flneg 000B                 __size_of___flmul 0361  
               __size_of___flsub 0024                 __size_of___fltol 007A               __end_of__stringtab 0806  
                       ___xxtofl 00FE                         __ptext10 00FE                         __ptext11 0BCC  
                       __ptext20 0A69                         __ptext12 0AB8                         __ptext13 0D68  
                       __ptext14 0A47                         __ptext15 0498                         __ptext16 0B01  
                       __ptext17 005C                         __ptext18 0C46                         __ptext19 0CCB  
                       _lcd_bits 0057                         _lcd_init 000C                         _lcd_goto 0A5D  
                       _lcd_puts 0A9E                  ___almod@divisor 0070                  ___almod@counter 0079  
                  __size_of_main 0013                    __size_of_ftoa 02E0                     ?_System_Test 0070  
         __size_of_lcd_put_float 0025                         _rounders 0806                      ??_lcd_clear 0072  
                    ??_lcd_start 0077                      ??_lcd_write 0070          ?_PIN_MANAGER_Initialize 0070  
                      stringcode 0800           __Umul8_16@multiplicand 0070                         stringdir 0800  
                       stringtab 0800                     ___aldiv@sign 0021                    ___fladd@signs 0078  
                  _lcd_put_float 0ADC   __end_of_PIN_MANAGER_Initialize 0A78                     ___almod@sign 007A  
                   ___fladd@aexp 0079                     ___fladd@bexp 007A             __Umul8_16@multiplier 0078  
              __Umul8_16@product 0074  
